(S'1.1.1'
p1
I1
t.ccopy_reg
_reconstructor
p1
(cpyke.fact_base
fact_base
p2
c__builtin__
object
p3
NtRp4
(dp5
S'initialized'
p6
I00
sS'entity_lists'
p7
(dp8
S'test'
p9
g1
(cpyke.fact_base
fact_list
p10
g3
NtRp11
(dp12
S'case_specific_facts'
p13
(lp14
sS'hashes'
p15
(dp16
sS'universal_facts'
p17
(lp18
(I16
I2
tp19
a(I10
I5
tp20
a(I5
I0
tp21
asS'name'
p22
g9
sS'fc_rule_refs'
p23
(lp24
sbssS'entity_list_type'
p25
g10
sg22
S'sensor_data'
p26
sb.