(S'1.1.1'
p1
I1
t.ccopy_reg
_reconstructor
p1
(cpyke.fact_base
fact_base
p2
c__builtin__
object
p3
NtRp4
(dp5
S'initialized'
p6
I00
sS'entity_lists'
p7
(dp8
S'test'
p9
g1
(cpyke.fact_base
fact_list
p10
g3
NtRp11
(dp12
S'case_specific_facts'
p13
(lp14
sS'hashes'
p15
(dp16
sS'universal_facts'
p17
(lp18
(I1407855964
I21
I2
tp19
a(I1407856902
I13
I2
tp20
a(I1407857894
I14
I2
tp21
a(I1407858885
I26
I3
tp22
a(I1407859789
I26
I3
tp23
a(I1407860715
I22
I2
tp24
a(I1407861648
I24
I4
tp25
a(I1407862558
I15
I2
tp26
a(I1407863493
I16
I2
tp27
a(I1407864462
I25
I2
tp28
a(I1407865409
I22
I2
tp29
a(I1407866316
I35
I3
tp30
a(I1407867230
I139
I5
tp31
a(I1407868151
I20
I2
tp32
a(I1407869062
I22
I2
tp33
a(I1407870197
I14
I3
tp34
a(I1407871176
I7
I2
tp35
a(I1407872085
I6
I2
tp36
a(I1407873058
I5
I1
tp37
a(I1407874238
I4
I2
tp38
a(I1407875647
I11
I2
tp39
a(I1407876959
I2
I1
tp40
a(I1407877907
I6
I2
tp41
a(I1407879208
I4
I2
tp42
a(I1407880475
I2
I1
tp43
a(I1407883669
I17
I3
tp44
a(I1407884725
I11
I3
tp45
a(I1407885825
I5
I1
tp46
a(I1407887016
I2
I1
tp47
a(I1407888844
I2
I1
tp48
a(I1407890865
I1
I1
tp49
a(I1407900449
I3
I1
tp50
a(I1407904934
I1
I1
tp51
a(I1407906519
I1
I1
tp52
a(I1407908275
I2
I1
tp53
a(I1407913205
I4
I1
tp54
a(I1407914207
I3
I1
tp55
a(I1407916063
I1
I1
tp56
a(I1407918892
I5
I2
tp57
a(I1407919968
I10
I2
tp58
a(I1407920871
I14
I3
tp59
a(I1407921820
I8
I3
tp60
a(I1407923019
I9
I2
tp61
a(I1407923969
I7
I2
tp62
a(I1407925054
I12
I2
tp63
a(I1407926216
I10
I2
tp64
a(I1407927179
I25
I4
tp65
a(I1407928083
I18
I3
tp66
a(I1407929104
I17
I2
tp67
a(I1407930018
I17
I2
tp68
a(I1407930920
I15
I1
tp69
a(I1407931855
I17
I2
tp70
a(I1407932811
I15
I2
tp71
a(I1407933731
I22
I2
tp72
a(I1407934633
I21
I2
tp73
a(I1407935549
I21
I3
tp74
a(I1407936462
I13
I2
tp75
a(I1407937575
I9
I3
tp76
a(I1407938599
I6
I2
tp77
a(I1407939516
I7
I2
tp78
a(I1407940715
I2
I1
tp79
a(I1407941735
I7
I3
tp80
a(I1407942716
I22
I3
tp81
a(I1407943862
I5
I1
tp82
a(I1407944840
I12
I3
tp83
a(I1407946032
I21
I3
tp84
a(I1407947032
I12
I4
tp85
a(I1407947986
I10
I3
tp86
a(I1407948900
I8
I2
tp87
a(I1407949856
I6
I1
tp88
a(I1407950928
I9
I2
tp89
a(I1407951897
I6
I2
tp90
a(I1407952804
I6
I1
tp91
a(I1407953726
I5
I1
tp92
a(I1407954642
I6
I2
tp93
a(I1407955568
I18
I3
tp94
a(I1407956738
I9
I2
tp95
a(I1407957777
I10
I2
tp96
a(I1407958739
I11
I2
tp97
a(I1407959711
I12
I4
tp98
a(I1407960680
I7
I2
tp99
a(I1407961866
I3
I2
tp100
a(I1407962849
I11
I2
tp101
a(I1407963833
I12
I2
tp102
a(I1407964943
I2
I1
tp103
a(I1407966012
I2
I1
tp104
a(I1407966977
I5
I1
tp105
a(I1407967995
I3
I1
tp106
a(I1407969067
I3
I2
tp107
a(I1407970624
I11
I1
tp108
a(I1407971537
I7
I2
tp109
a(I1407974027
I1
I1
tp110
a(I1407975940
I1
I1
tp111
a(I1407978354
I6
I2
tp112
a(I1407982220
I1
I1
tp113
a(I1407983324
I1
I1
tp114
a(I1407985313
I2
I1
tp115
a(I1407987560
I1
I1
tp116
a(I1407991585
I7
I2
tp117
a(I1407993771
I1
I1
tp118
a(I1407997232
I2
I1
tp119
a(I1408001279
I8
I1
tp120
a(I1408003756
I3
I1
tp121
a(I1408004941
I9
I2
tp122
a(I1408006339
I7
I1
tp123
a(I1408007253
I17
I2
tp124
a(I1408008164
I25
I3
tp125
a(I1408009097
I18
I3
tp126
a(I1408010130
I18
I3
tp127
a(I1408011095
I13
I3
tp128
a(I1408012581
I1
I1
tp129
a(I1408022013
I1
I1
tp130
a(I1408026656
I12
I2
tp131
a(I1408027603
I20
I3
tp132
a(I1408028556
I15
I2
tp133
a(I1408029461
I12
I2
tp134
a(I1408030512
I20
I3
tp135
a(I1408031703
I15
I3
tp136
a(I1408033611
I5
I1
tp137
a(I1408034517
I7
I1
tp138
a(I1408035446
I21
I3
tp139
a(I1408036357
I7
I1
tp140
a(I1408037317
I5
I2
tp141
a(I1408038251
I14
I4
tp142
a(I1408039357
I12
I2
tp143
a(I1408040523
I5
I1
tp144
a(I1408041498
I12
I3
tp145
a(I1408042462
I9
I3
tp146
a(I1408043447
I11
I2
tp147
a(I1408044520
I8
I2
tp148
a(I1408045448
I3
I1
tp149
a(I1408046425
I6
I2
tp150
a(I1408049861
I9
I2
tp151
a(I1408050855
I15
I3
tp152
a(I1408051982
I2
I1
tp153
a(I1408052887
I11
I2
tp154
a(I1408053805
I7
I1
tp155
a(I1408055258
I8
I2
tp156
a(I1408056308
I22
I3
tp157
a(I1408057250
I20
I3
tp158
a(I1408058184
I7
I1
tp159
a(I1408059474
I2
I1
tp160
a(I1408061825
I4
I1
tp161
a(I1408072746
I1
I1
tp162
a(I1408077253
I1
I1
tp163
a(I1408085742
I9
I2
tp164
a(I1408087782
I1
I1
tp165
a(I1408089113
I2
I1
tp166
a(I1408090568
I12
I2
tp167
a(I1408091537
I12
I1
tp168
a(I1408092503
I10
I1
tp169
a(I1408093431
I28
I3
tp170
a(I1408094377
I16
I3
tp171
a(I1408095386
I15
I2
tp172
a(I1408096352
I17
I2
tp173
a(I1408097381
I13
I2
tp174
a(I1408098300
I16
I3
tp175
a(I1408099202
I3
I1
tp176
a(I1408100517
I17
I3
tp177
a(I1408101437
I16
I3
tp178
a(I1408102449
I16
I3
tp179
a(I1408103380
I13
I2
tp180
a(I1408104342
I12
I1
tp181
a(I1408105341
I16
I2
tp182
a(I1408106302
I17
I3
tp183
a(I1408107269
I14
I2
tp184
a(I1408108235
I14
I2
tp185
a(I1408109217
I11
I1
tp186
a(I1408110127
I14
I1
tp187
a(I1408111045
I20
I3
tp188
a(I1408112135
I12
I3
tp189
a(I1408113095
I10
I2
tp190
a(I1408114137
I7
I1
tp191
a(I1408115114
I17
I3
tp192
a(I1408116115
I16
I2
tp193
a(I1408117111
I16
I2
tp194
a(I1408118073
I20
I2
tp195
a(I1408119084
I12
I2
tp196
a(I1408119999
I14
I1
tp197
a(I1408120977
I9
I1
tp198
a(I1408121966
I10
I1
tp199
a(I1408122972
I10
I1
tp200
a(I1408123969
I15
I1
tp201
a(I1408124998
I11
I1
tp202
a(I1408125914
I10
I2
tp203
a(I1408126828
I9
I1
tp204
a(I1408127774
I12
I1
tp205
a(I1408128783
I8
I1
tp206
a(I1408129881
I11
I1
tp207
a(I1408130796
I24
I2
tp208
a(I1408131706
I17
I2
tp209
a(I1408132609
I10
I2
tp210
a(I1408133787
I3
I1
tp211
a(I1408134746
I11
I2
tp212
a(I1408135681
I7
I2
tp213
a(I1408136659
I8
I2
tp214
a(I1408137655
I21
I2
tp215
a(I1408138608
I7
I2
tp216
a(I1408139808
I17
I3
tp217
a(I1408140729
I15
I2
tp218
a(I1408141636
I17
I1
tp219
a(I1408142540
I20
I2
tp220
a(I1408143519
I10
I1
tp221
a(I1408144441
I16
I1
tp222
a(I1408145407
I9
I1
tp223
a(I1408146504
I3
I1
tp224
a(I1408147492
I2
I1
tp225
a(I1408156472
I1
I1
tp226
a(I1408165142
I7
I1
tp227
a(I1408166939
I1
I1
tp228
a(I1408170074
I1
I1
tp229
a(I1408172113
I7
I2
tp230
a(I1408173063
I2
I1
tp231
a(I1408174150
I2
I1
tp232
a(I1408175198
I3
I1
tp233
a(I1408176339
I10
I2
tp234
a(I1408177340
I1
I1
tp235
a(I1408178869
I2
I1
tp236
a(I1408180154
I6
I2
tp237
a(I1408181135
I10
I1
tp238
a(I1408182140
I16
I3
tp239
a(I1408183201
I17
I3
tp240
a(I1408184104
I17
I3
tp241
a(I1408185087
I14
I2
tp242
a(I1408186023
I9
I2
tp243
a(I1408187017
I13
I2
tp244
a(I1408188030
I10
I2
tp245
a(I1408189182
I18
I3
tp246
a(I1408190083
I23
I3
tp247
a(I1408191049
I12
I2
tp248
a(I1408192158
I15
I3
tp249
a(I1408193062
I21
I4
tp250
a(I1408195930
I24
I3
tp251
a(I1408196849
I17
I2
tp252
a(I1408197843
I22
I3
tp253
a(I1408198810
I14
I2
tp254
a(I1408199724
I19
I2
tp255
a(I1408200646
I20
I3
tp256
a(I1408201581
I9
I2
tp257
a(I1408202508
I6
I2
tp258
a(I1408203417
I6
I2
tp259
a(I1408205646
I14
I2
tp260
a(I1408206555
I10
I2
tp261
a(I1408207552
I9
I2
tp262
a(I1408208838
I15
I3
tp263
a(I1408209764
I13
I2
tp264
a(I1408210707
I20
I2
tp265
a(I1408211692
I19
I3
tp266
a(I1408212683
I17
I2
tp267
a(I1408213592
I40
I3
tp268
a(I1408214546
I13
I2
tp269
a(I1408215576
I13
I3
tp270
a(I1408216583
I14
I3
tp271
a(I1408217568
I10
I2
tp272
a(I1408218500
I10
I2
tp273
a(I1408219529
I4
I1
tp274
a(I1408220438
I10
I2
tp275
a(I1408221526
I9
I2
tp276
a(I1408223280
I2
I2
tp277
a(I1408224196
I2
I1
tp278
a(I1408225554
I1
I1
tp279
a(I1408226742
I22
I3
tp280
a(I1408227682
I19
I2
tp281
a(I1408228704
I16
I2
tp282
a(I1408229649
I4
I1
tp283
a(I1408231463
I1
I1
tp284
a(I1408232428
I1
I1
tp285
a(I1408234479
I2
I1
tp286
a(I1408236652
I6
I2
tp287
a(I1408239671
I1
I1
tp288
a(I1408244052
I2
I1
tp289
a(I1408249705
I2
I1
tp290
a(I1408251442
I1
I1
tp291
a(I1408258159
I8
I2
tp292
a(I1408259367
I3
I1
tp293
a(I1408260705
I1
I1
tp294
a(I1408261777
I1
I1
tp295
a(I1408263146
I5
I1
tp296
a(I1408264109
I13
I2
tp297
a(I1408265058
I7
I1
tp298
a(I1408266009
I2
I1
tp299
a(I1408267859
I7
I1
tp300
a(I1408268834
I13
I2
tp301
a(I1408269800
I26
I4
tp302
a(I1408270736
I15
I3
tp303
a(I1408271650
I14
I2
tp304
a(I1408272645
I22
I3
tp305
a(I1408273660
I17
I2
tp306
a(I1408274629
I8
I1
tp307
a(I1408275629
I9
I2
tp308
a(I1408276792
I12
I2
tp309
a(I1408277705
I16
I2
tp310
a(I1408278721
I20
I2
tp311
a(I1408279669
I13
I2
tp312
a(I1408280581
I23
I3
tp313
a(I1408281596
I4
I1
tp314
a(I1408282855
I9
I1
tp315
a(I1408283796
I10
I2
tp316
a(I1408284749
I8
I2
tp317
a(I1408286130
I7
I2
tp318
a(I1408287479
I13
I2
tp319
a(I1408288452
I18
I2
tp320
a(I1408289436
I11
I3
tp321
a(I1408290439
I13
I2
tp322
a(I1408291349
I10
I1
tp323
a(I1408292324
I11
I2
tp324
a(I1408293227
I11
I1
tp325
a(I1408294152
I14
I2
tp326
a(I1408295060
I17
I3
tp327
a(I1408296000
I14
I3
tp328
a(I1408296909
I16
I2
tp329
a(I1408297923
I14
I2
tp330
a(I1408298916
I13
I2
tp331
a(I1408299917
I12
I1
tp332
a(I1408300890
I12
I1
tp333
a(I1408301857
I13
I1
tp334
a(I1408302855
I17
I2
tp335
a(I1408303768
I10
I1
tp336
a(I1408304742
I17
I4
tp337
a(I1408305662
I7
I2
tp338
a(I1408306699
I7
I2
tp339
a(I1408307642
I5
I2
tp340
a(I1408308797
I14
I2
tp341
a(I1408310141
I3
I2
tp342
a(I1408311412
I6
I2
tp343
a(I1408312833
I13
I2
tp344
a(I1408316060
I20
I2
tp345
a(I1408317008
I17
I2
tp346
a(I1408317976
I16
I2
tp347
a(I1408318945
I3
I1
tp348
a(I1408322155
I1
I1
tp349
a(I1408323146
I2
I1
tp350
a(I1408329145
I1
I1
tp351
a(I1408333137
I1
I1
tp352
a(I1408334089
I4
I1
tp353
a(I1408335219
I1
I1
tp354
a(I1408337051
I4
I1
tp355
a(I1408337961
I9
I1
tp356
a(I1408339501
I7
I1
tp357
a(I1408340478
I4
I1
tp358
a(I1408343677
I1
I1
tp359
a(I1408344691
I4
I1
tp360
a(I1408345678
I3
I1
tp361
a(I1408346707
I2
I1
tp362
a(I1408348915
I1
I1
tp363
a(I1408350040
I9
I2
tp364
a(I1408351076
I8
I1
tp365
a(I1408352070
I14
I2
tp366
a(I1408353038
I21
I3
tp367
a(I1408354004
I22
I2
tp368
a(I1408354952
I19
I3
tp369
a(I1408355878
I22
I2
tp370
a(I1408357987
I29
I4
tp371
a(I1408358985
I14
I3
tp372
a(I1408359923
I13
I1
tp373
a(I1408360840
I25
I3
tp374
a(I1408361759
I15
I1
tp375
a(I1408363345
I29
I3
tp376
a(I1408364286
I20
I1
tp377
a(I1408365249
I18
I1
tp378
a(I1408366152
I14
I1
tp379
a(I1408367123
I24
I2
tp380
a(I1408368062
I28
I3
tp381
a(I1408368972
I20
I3
tp382
a(I1408371731
I3
I2
tp383
a(I1408372749
I39
I3
tp384
a(I1408373688
I16
I2
tp385
a(I1408374652
I16
I2
tp386
a(I1408375636
I19
I1
tp387
a(I1408376547
I23
I4
tp388
a(I1408377458
I15
I1
tp389
a(I1408378409
I14
I1
tp390
a(I1408379328
I15
I1
tp391
a(I1408380295
I20
I2
tp392
a(I1408381200
I21
I3
tp393
a(I1408382184
I21
I2
tp394
a(I1408383100
I21
I3
tp395
a(I1408384071
I19
I3
tp396
a(I1408384973
I25
I4
tp397
a(I1408385877
I14
I2
tp398
a(I1408398492
I26
I4
tp399
a(I1408399401
I23
I3
tp400
a(I1408400342
I16
I1
tp401
a(I1408401352
I15
I3
tp402
a(I1408402290
I12
I1
tp403
a(I1408403300
I10
I2
tp404
a(I1408408325
I1
I1
tp405
a(I1408416832
I1
I1
tp406
a(I1408418852
I2
I1
tp407
a(I1408420819
I1
I1
tp408
a(I1408422162
I6
I1
tp409
a(I1408423878
I4
I1
tp410
a(I1408427741
I1
I1
tp411
a(I1408430931
I1
I1
tp412
a(I1408432847
I8
I2
tp413
a(I1408435235
I2
I1
tp414
a(I1408436709
I6
I2
tp415
a(I1408437727
I8
I1
tp416
a(I1408438740
I9
I1
tp417
a(I1408439677
I15
I3
tp418
a(I1408440585
I17
I3
tp419
a(I1408441536
I14
I3
tp420
a(I1408442461
I11
I2
tp421
a(I1408443460
I12
I1
tp422
a(I1408444564
I11
I2
tp423
a(I1408445542
I17
I3
tp424
a(I1408446449
I22
I3
tp425
a(I1408447432
I10
I2
tp426
a(I1408448398
I10
I1
tp427
a(I1408449327
I13
I1
tp428
a(I1408450341
I17
I3
tp429
a(I1408451357
I9
I1
tp430
a(I1408452415
I19
I3
tp431
a(I1408453398
I12
I3
tp432
a(I1408454716
I9
I1
tp433
a(I1408455666
I15
I3
tp434
a(I1408456602
I8
I1
tp435
a(I1408457627
I9
I2
tp436
a(I1408458746
I11
I1
tp437
a(I1408459678
I19
I3
tp438
a(I1408461196
I16
I3
tp439
a(I1408462169
I23
I3
tp440
a(I1408463108
I17
I2
tp441
a(I1408464030
I9
I2
tp442
a(I1408464934
I15
I2
tp443
a(I1408465944
I16
I2
tp444
a(I1408466964
I14
I2
tp445
a(I1408467868
I13
I1
tp446
a(I1408468813
I11
I2
tp447
a(I1408469784
I14
I2
tp448
a(I1408470720
I7
I2
tp449
a(I1408471630
I24
I3
tp450
a(I1408472799
I24
I3
tp451
a(I1408473813
I19
I2
tp452
a(I1408474789
I10
I1
tp453
a(I1408475712
I11
I2
tp454
a(I1408476693
I13
I2
tp455
a(I1408477667
I10
I3
tp456
a(I1408478895
I12
I2
tp457
a(I1408479843
I11
I2
tp458
a(I1408480752
I9
I2
tp459
a(I1408482007
I10
I2
tp460
a(I1408482932
I10
I2
tp461
a(I1408484218
I6
I1
tp462
a(I1408485169
I19
I2
tp463
a(I1408486164
I14
I2
tp464
a(I1408487143
I5
I1
tp465
a(I1408489711
I3
I1
tp466
a(I1408490629
I7
I1
tp467
a(I1408491593
I13
I1
tp468
a(I1408492504
I9
I1
tp469
a(I1408495895
I2
I1
tp470
a(I1408503590
I1
I1
tp471
a(I1408509561
I1
I1
tp472
a(I1408515264
I4
I2
tp473
a(I1408516168
I4
I1
tp474
a(I1408517161
I4
I1
tp475
a(I1408518269
I6
I1
tp476
a(I1408519396
I4
I1
tp477
a(I1408520817
I1
I1
tp478
a(I1408521991
I1
I1
tp479
a(I1408523220
I1
I1
tp480
a(I1408524230
I9
I1
tp481
a(I1408525224
I11
I2
tp482
a(I1408526325
I15
I3
tp483
a(I1408527304
I13
I3
tp484
a(I1408528206
I25
I3
tp485
a(I1408529107
I13
I1
tp486
a(I1408530052
I12
I1
tp487
a(I1408531017
I10
I2
tp488
a(I1408531993
I10
I3
tp489
a(I1408532944
I12
I2
tp490
a(I1408533927
I10
I3
tp491
a(I1408535112
I22
I3
tp492
a(I1408536189
I12
I2
tp493
a(I1408537284
I3
I1
tp494
a(I1408538623
I20
I2
tp495
a(I1408539605
I14
I1
tp496
a(I1408540624
I14
I2
tp497
a(I1408541621
I11
I2
tp498
a(I1408542626
I13
I2
tp499
a(I1408543543
I13
I2
tp500
a(I1408544541
I12
I1
tp501
a(I1408545530
I8
I1
tp502
a(I1408546528
I12
I1
tp503
a(I1408547499
I13
I3
tp504
a(I1408548422
I25
I3
tp505
a(I1408549330
I17
I3
tp506
a(I1408550251
I14
I2
tp507
a(I1408551233
I12
I2
tp508
a(I1408552253
I18
I2
tp509
a(I1408553171
I15
I2
tp510
a(I1408554116
I10
I1
tp511
a(I1408555035
I12
I2
tp512
a(I1408556765
I17
I2
tp513
a(I1408558077
I8
I2
tp514
a(I1408559134
I7
I2
tp515
a(I1408560376
I5
I2
tp516
a(I1408561428
I6
I2
tp517
a(I1408562634
I17
I2
tp518
a(I1408563560
I8
I3
tp519
a(I1408564565
I13
I2
tp520
a(I1408565680
I3
I1
tp521
a(I1408567234
I4
I1
tp522
a(I1408568375
I20
I2
tp523
a(I1408569316
I16
I2
tp524
a(I1408570230
I11
I2
tp525
a(I1408571187
I13
I2
tp526
a(I1408572106
I4
I2
tp527
a(I1408573102
I16
I3
tp528
a(I1408574096
I16
I3
tp529
a(I1408575141
I8
I2
tp530
a(I1408576905
I18
I2
tp531
a(I1408578082
I12
I2
tp532
a(I1408578993
I11
I2
tp533
a(I1408581162
I1
I1
tp534
a(I1408588858
I1
I1
tp535
a(I1408593284
I2
I1
tp536
a(I1408594288
I1
I1
tp537
a(I1408595559
I1
I1
tp538
a(I1408603765
I9
I2
tp539
a(I1408604872
I1
I1
tp540
a(I1408606653
I3
I1
tp541
a(I1408608378
I2
I1
tp542
a(I1408609303
I1
I1
tp543
a(I1408610866
I9
I2
tp544
a(I1408611810
I10
I1
tp545
a(I1408612765
I23
I3
tp546
a(I1408613679
I26
I3
tp547
a(I1408614613
I18
I3
tp548
a(I1408615600
I21
I4
tp549
a(I1408635042
I13
I3
tp550
a(I1408635972
I9
I1
tp551
a(I1408636978
I10
I2
tp552
a(I1408637882
I8
I1
tp553
a(I1408638824
I11
I2
tp554
a(I1408639853
I7
I1
tp555
a(I1408640797
I7
I2
tp556
a(I1408641878
I16
I3
tp557
a(I1408642786
I16
I3
tp558
a(I1408643690
I18
I3
tp559
a(I1408644652
I13
I2
tp560
a(I1408645619
I11
I3
tp561
a(I1408646617
I12
I2
tp562
a(I1408647615
I11
I3
tp563
a(I1408648619
I10
I2
tp564
a(I1408649704
I2
I2
tp565
a(I1408650666
I7
I2
tp566
a(I1408651600
I9
I1
tp567
a(I1408652508
I15
I2
tp568
a(I1408653547
I9
I2
tp569
a(I1408654775
I16
I2
tp570
a(I1408655700
I16
I2
tp571
a(I1408656803
I10
I2
tp572
a(I1408657752
I9
I2
tp573
a(I1408658741
I21
I2
tp574
a(I1408659840
I5
I2
tp575
a(I1408660891
I13
I2
tp576
a(I1408661842
I24
I3
tp577
a(I1408662783
I11
I2
tp578
a(I1408663867
I7
I1
tp579
a(I1408664841
I2
I1
tp580
a(I1408666047
I1
I1
tp581
a(I1408667593
I1
I1
tp582
a(I1408681631
I1
I1
tp583
a(I1408685538
I8
I1
tp584
a(I1408686645
I3
I1
tp585
a(I1408690668
I9
I2
tp586
a(I1408691881
I4
I1
tp587
a(I1408693257
I1
I1
tp588
a(I1408694579
I1
I1
tp589
a(I1408695554
I3
I1
tp590
a(I1408696635
I7
I2
tp591
a(I1408697567
I9
I1
tp592
a(I1408698521
I14
I3
tp593
a(I1408699429
I19
I3
tp594
a(I1408700338
I17
I3
tp595
a(I1408701256
I14
I2
tp596
a(I1408702253
I16
I3
tp597
a(I1408703244
I12
I3
tp598
a(I1408704194
I14
I2
tp599
a(I1408705155
I14
I2
tp600
a(I1408706212
I8
I2
tp601
a(I1408707253
I15
I2
tp602
a(I1408708273
I8
I1
tp603
a(I1408709216
I15
I2
tp604
a(I1408710159
I20
I2
tp605
a(I1408711133
I13
I1
tp606
a(I1408712057
I22
I3
tp607
a(I1408713029
I11
I1
tp608
a(I1408713936
I12
I2
tp609
a(I1408714953
I15
I3
tp610
a(I1408721153
I12
I1
tp611
a(I1408722078
I15
I2
tp612
a(I1408723095
I10
I1
tp613
a(I1408724036
I12
I2
tp614
a(I1408724980
I11
I1
tp615
a(I1408725978
I9
I1
tp616
a(I1408726942
I20
I3
tp617
a(I1408727850
I15
I2
tp618
a(I1408728796
I27
I3
tp619
a(I1408729760
I17
I2
tp620
a(I1408730675
I22
I3
tp621
a(I1408731596
I22
I3
tp622
a(I1408732534
I13
I2
tp623
a(I1408733723
I18
I2
tp624
a(I1408734684
I19
I4
tp625
a(I1408735641
I16
I2
tp626
a(I1408736689
I5
I2
tp627
a(I1408737799
I11
I2
tp628
a(I1408739009
I4
I2
tp629
a(I1408740096
I1
I1
tp630
a(I1408741886
I8
I1
tp631
a(I1408742895
I7
I2
tp632
a(I1408744412
I4
I2
tp633
a(I1408745481
I15
I3
tp634
a(I1408747011
I6
I2
tp635
a(I1408748081
I11
I2
tp636
a(I1408749071
I11
I2
tp637
a(I1408749991
I17
I3
tp638
a(I1408750899
I10
I1
tp639
a(I1408751809
I5
I1
tp640
a(I1408753184
I1
I1
tp641
a(I1408756699
I6
I2
tp642
a(I1408760845
I1
I1
tp643
a(I1408767611
I1
I1
tp644
a(I1408769027
I1
I1
tp645
a(I1408771063
I1
I1
tp646
a(I1408773136
I6
I2
tp647
a(I1408778647
I9
I1
tp648
a(I1408780224
I5
I1
tp649
a(I1408781128
I13
I2
tp650
a(I1408782090
I5
I1
tp651
a(I1408783035
I1
I1
tp652
a(I1408784912
I8
I1
tp653
a(I1408785923
I13
I1
tp654
a(I1408786875
I28
I3
tp655
a(I1408787854
I17
I2
tp656
a(I1408788801
I20
I3
tp657
a(I1408789803
I11
I1
tp658
a(I1408790803
I12
I2
tp659
a(I1408791778
I18
I3
tp660
a(I1408792740
I22
I3
tp661
a(I1408793653
I5
I1
tp662
a(I1408879710
I12
I1
tp663
a(I1408882100
I22
I2
tp664
a(I1408883032
I13
I2
tp665
a(I1408884009
I17
I3
tp666
a(I1408884952
I14
I2
tp667
a(I1408885916
I14
I1
tp668
a(I1408886929
I12
I2
tp669
a(I1408887928
I13
I1
tp670
a(I1408888923
I9
I1
tp671
a(I1408889992
I10
I2
tp672
a(I1408890999
I13
I2
tp673
a(I1408892048
I15
I2
tp674
a(I1408892963
I19
I3
tp675
a(I1408893876
I7
I1
tp676
a(I1408894854
I8
I1
tp677
a(I1408895842
I8
I1
tp678
a(I1408896837
I12
I3
tp679
a(I1408897852
I8
I1
tp680
a(I1408898794
I12
I3
tp681
a(I1408899805
I11
I2
tp682
a(I1408900757
I12
I1
tp683
a(I1408901710
I8
I1
tp684
a(I1408902715
I11
I3
tp685
a(I1408903686
I8
I1
tp686
a(I1408904677
I8
I1
tp687
a(I1408905652
I11
I3
tp688
a(I1408906625
I8
I1
tp689
a(I1408907635
I12
I3
tp690
a(I1408908661
I14
I2
tp691
a(I1408909715
I15
I3
tp692
a(I1408910698
I14
I1
tp693
a(I1408911916
I9
I2
tp694
a(I1408912865
I6
I2
tp695
a(I1408913866
I13
I4
tp696
a(I1408914830
I11
I3
tp697
a(I1408915793
I6
I2
tp698
a(I1408917048
I10
I2
tp699
a(I1408918049
I10
I2
tp700
a(I1408919004
I9
I2
tp701
a(I1408919916
I10
I2
tp702
a(I1408920951
I12
I2
tp703
a(I1408921853
I12
I3
tp704
a(I1408922857
I22
I4
tp705
a(I1408923785
I16
I3
tp706
a(I1408924763
I3
I1
tp707
a(I1408925689
I18
I2
tp708
a(I1408928591
I1
I1
tp709
a(I1408929661
I1
I1
tp710
a(I1408939163
I1
I1
tp711
a(I1408941663
I1
I1
tp712
a(I1408942984
I1
I1
tp713
a(I1408944851
I5
I2
tp714
a(I1408945833
I3
I1
tp715
a(I1408946960
I1
I1
tp716
a(I1408950825
I9
I2
tp717
a(I1408953546
I1
I1
tp718
a(I1408954505
I1
I1
tp719
a(I1408955449
I7
I2
tp720
a(I1408956397
I8
I1
tp721
a(I1408957411
I12
I2
tp722
a(I1408958367
I22
I3
tp723
a(I1408959269
I18
I3
tp724
a(I1408960226
I13
I2
tp725
a(I1408961140
I16
I2
tp726
a(I1408962063
I11
I2
tp727
a(I1408963036
I14
I3
tp728
a(I1408963945
I12
I2
tp729
a(I1408964850
I18
I3
tp730
a(I1408965789
I9
I3
tp731
a(I1408966709
I13
I2
tp732
a(I1408967660
I14
I3
tp733
a(I1408968640
I21
I4
tp734
a(I1408969624
I15
I3
tp735
a(I1408970547
I15
I2
tp736
a(I1408971494
I17
I3
tp737
a(I1408972430
I33
I3
tp738
a(I1408973343
I20
I3
tp739
a(I1408974253
I28
I2
tp740
a(I1408975207
I21
I2
tp741
a(I1408976179
I24
I3
tp742
a(I1408977148
I21
I2
tp743
a(I1408978094
I26
I2
tp744
a(I1408979035
I18
I2
tp745
a(I1408979963
I29
I2
tp746
a(I1408980926
I19
I1
tp747
a(I1408981884
I16
I1
tp748
a(I1408982826
I17
I1
tp749
a(I1408983799
I18
I2
tp750
a(I1408984719
I24
I3
tp751
a(I1408985660
I12
I2
tp752
a(I1408986568
I12
I2
tp753
a(I1408987501
I15
I4
tp754
a(I1408988412
I35
I3
tp755
a(I1408989337
I14
I2
tp756
a(I1408990351
I16
I2
tp757
a(I1408991325
I14
I2
tp758
a(I1408992312
I17
I1
tp759
a(I1408993295
I30
I2
tp760
a(I1408994266
I11
I1
tp761
a(I1408995265
I21
I4
tp762
a(I1408996188
I21
I3
tp763
a(I1408997090
I5
I2
tp764
a(I1408998422
I5
I2
tp765
a(I1408999782
I4
I2
tp766
a(I1409000831
I4
I2
tp767
a(I1409002275
I9
I2
tp768
a(I1409003196
I9
I2
tp769
a(I1409007835
I18
I3
tp770
a(I1409008849
I10
I2
tp771
a(I1409009779
I9
I1
tp772
a(I1409011411
I2
I1
tp773
a(I1409012453
I1
I1
tp774
a(I1409025416
I7
I2
tp775
a(I1409036565
I4
I1
tp776
a(I1409037503
I9
I1
tp777
a(I1409041243
I1
I1
tp778
a(I1409042635
I11
I3
tp779
a(I1409043630
I8
I1
tp780
a(I1409044592
I10
I1
tp781
a(I1409045522
I23
I3
tp782
a(I1409046457
I19
I3
tp783
a(I1409047411
I11
I2
tp784
a(I1409048324
I17
I3
tp785
a(I1409049240
I16
I4
tp786
a(I1409050186
I18
I3
tp787
a(I1409051113
I9
I1
tp788
a(I1409052026
I27
I3
tp789
a(I1409053027
I23
I3
tp790
a(I1409053946
I22
I3
tp791
a(I1409054880
I19
I3
tp792
a(I1409055875
I12
I2
tp793
a(I1409056862
I8
I1
tp794
a(I1409057799
I10
I2
tp795
a(I1409058778
I21
I3
tp796
a(I1409059996
I7
I2
tp797
a(I1409061517
I8
I2
tp798
a(I1409062845
I5
I2
tp799
a(I1409064013
I11
I2
tp800
a(I1409064918
I13
I2
tp801
a(I1409065973
I14
I2
tp802
a(I1409066936
I14
I3
tp803
a(I1409067893
I15
I2
tp804
a(I1409069344
I13
I2
tp805
a(I1409070324
I9
I2
tp806
a(I1409071338
I4
I1
tp807
a(I1409072304
I8
I2
tp808
a(I1409073379
I6
I2
tp809
a(I1409074423
I13
I2
tp810
a(I1409075333
I13
I2
tp811
a(I1409076234
I11
I1
tp812
a(I1409077211
I10
I1
tp813
a(I1409078189
I9
I1
tp814
a(I1409079156
I15
I3
tp815
a(I1409080146
I20
I2
tp816
a(I1409081066
I13
I3
tp817
a(I1409082001
I6
I2
tp818
a(I1409083112
I10
I2
tp819
a(I1409084127
I9
I2
tp820
a(I1409085067
I8
I2
tp821
a(I1409085989
I12
I2
tp822
a(I1409087173
I7
I2
tp823
a(I1409088161
I9
I2
tp824
a(I1409089108
I8
I2
tp825
a(I1409090149
I21
I2
tp826
a(I1409091118
I13
I2
tp827
a(I1409092082
I9
I1
tp828
a(I1409094448
I4
I1
tp829
a(I1409098863
I7
I1
tp830
a(I1409099962
I17
I2
tp831
a(I1409100899
I4
I1
tp832
a(I1409101945
I1
I1
tp833
a(I1409107204
I1
I1
tp834
a(I1409109451
I1
I1
tp835
a(I1409111602
I1
I1
tp836
a(I1409116547
I1
I1
tp837
a(I1409120887
I6
I2
tp838
a(I1409124241
I1
I1
tp839
a(I1409125309
I2
I1
tp840
a(I1409126424
I2
I1
tp841
a(I1409127368
I4
I1
tp842
a(I1409128308
I8
I1
tp843
a(I1409129319
I10
I1
tp844
a(I1409130284
I14
I1
tp845
a(I1409131186
I29
I3
tp846
a(I1409132099
I13
I2
tp847
a(I1409133068
I13
I2
tp848
a(I1409134033
I18
I3
tp849
a(I1409134944
I18
I2
tp850
a(I1409135856
I15
I1
tp851
a(I1409136876
I11
I1
tp852
a(I1409137779
I9
I1
tp853
a(I1409138795
I14
I1
tp854
a(I1409139809
I18
I3
tp855
a(I1409140710
I18
I3
tp856
a(I1409141693
I16
I2
tp857
a(I1409142601
I18
I3
tp858
a(I1409143653
I9
I2
tp859
a(I1409144684
I16
I2
tp860
a(I1409145654
I15
I1
tp861
a(I1409146558
I15
I1
tp862
a(I1409147462
I15
I1
tp863
a(I1409148391
I16
I2
tp864
a(I1409149409
I14
I2
tp865
a(I1409150314
I22
I3
tp866
a(I1409151309
I9
I1
tp867
a(I1409152346
I13
I3
tp868
a(I1409153280
I11
I2
tp869
a(I1409154250
I12
I2
tp870
a(I1409155154
I15
I1
tp871
a(I1409156059
I14
I2
tp872
a(I1409156975
I19
I2
tp873
a(I1409157929
I14
I3
tp874
a(I1409158860
I16
I2
tp875
a(I1409159765
I9
I2
tp876
a(I1409160687
I6
I2
tp877
a(I1409162328
I13
I2
tp878
a(I1409163347
I9
I2
tp879
a(I1409164328
I9
I2
tp880
a(I1409165397
I10
I2
tp881
a(I1409166416
I18
I2
tp882
a(I1409167439
I11
I2
tp883
a(I1409168446
I13
I2
tp884
a(I1409169391
I6
I2
tp885
a(I1409170297
I9
I2
tp886
a(I1409171220
I4
I2
tp887
a(I1409172243
I12
I2
tp888
a(I1409173160
I19
I2
tp889
a(I1409174101
I5
I1
tp890
a(I1409175239
I9
I1
tp891
a(I1409176180
I17
I2
tp892
a(I1409177224
I5
I2
tp893
a(I1409178346
I4
I2
tp894
a(I1409179791
I13
I2
tp895
a(I1409180693
I21
I3
tp896
a(I1409181685
I8
I1
tp897
a(I1409182593
I2
I1
tp898
a(I1409183748
I1
I1
tp899
a(I1409184721
I1
I1
tp900
a(I1409190497
I2
I1
tp901
a(I1409193602
I1
I1
tp902
a(I1409197677
I1
I1
tp903
a(I1409200860
I1
I1
tp904
a(I1409206772
I9
I2
tp905
a(I1409207887
I2
I1
tp906
a(I1409208830
I3
I1
tp907
a(I1409209979
I2
I1
tp908
a(I1409211306
I4
I1
tp909
a(I1409212211
I2
I1
tp910
a(I1409213120
I3
I1
tp911
a(I1409214622
I6
I2
tp912
a(I1409215752
I7
I1
tp913
a(I1409216724
I10
I1
tp914
a(I1409217667
I22
I3
tp915
a(I1409218617
I24
I3
tp916
a(I1409219631
I13
I2
tp917
a(I1409220552
I21
I3
tp918
a(I1409239825
I12
I2
tp919
a(I1409240731
I10
I1
tp920
a(I1409241679
I18
I3
tp921
a(I1409242694
I23
I4
tp922
a(I1409243646
I16
I2
tp923
a(I1409244617
I11
I1
tp924
a(I1409245654
I11
I1
tp925
a(I1409246629
I20
I3
tp926
a(I1409247910
I19
I3
tp927
a(I1409248882
I13
I2
tp928
a(I1409249820
I14
I1
tp929
a(I1409250727
I16
I3
tp930
a(I1409251631
I8
I2
tp931
a(I1409252567
I9
I2
tp932
a(I1409253746
I15
I2
tp933
a(I1409254761
I9
I1
tp934
a(I1409255734
I9
I1
tp935
a(I1409256696
I9
I3
tp936
a(I1409257617
I17
I2
tp937
a(I1409258600
I9
I2
tp938
a(I1409259501
I22
I3
tp939
a(I1409260483
I16
I3
tp940
a(I1409261484
I15
I2
tp941
a(I1409262593
I12
I2
tp942
a(I1409263500
I12
I2
tp943
a(I1409264503
I5
I2
tp944
a(I1409265536
I6
I2
tp945
a(I1409266520
I13
I2
tp946
a(I1409267434
I14
I3
tp947
a(I1409268448
I9
I1
tp948
a(I1409269369
I6
I1
tp949
a(I1409270776
I3
I1
tp950
a(I1409271742
I7
I1
tp951
a(I1409272676
I7
I1
tp952
a(I1409275731
I1
I1
tp953
a(I1409281707
I1
I1
tp954
a(I1409291839
I7
I2
tp955
a(I1409293104
I4
I1
tp956
a(I1409295426
I4
I1
tp957
a(I1409296360
I2
I1
tp958
a(I1409297310
I16
I4
tp959
a(I1409298214
I12
I3
tp960
a(I1409299221
I22
I4
tp961
a(I1409300180
I21
I2
tp962
a(I1409301158
I18
I2
tp963
a(I1409302124
I14
I1
tp964
a(I1409303127
I9
I1
tp965
a(I1409304037
I8
I1
tp966
a(I1409304980
I19
I3
tp967
a(I1409305884
I24
I3
tp968
a(I1409308596
I1
I1
tp969
a(I1409339920
I30
I3
tp970
a(I1409340871
I17
I2
tp971
a(I1409341896
I13
I1
tp972
a(I1409342877
I14
I1
tp973
a(I1409343788
I16
I2
tp974
a(I1409344714
I13
I2
tp975
a(I1409345841
I11
I2
tp976
a(I1409346796
I17
I3
tp977
a(I1409347733
I19
I3
tp978
a(I1409348641
I13
I2
tp979
a(I1409349559
I6
I1
tp980
a(I1409350865
I7
I2
tp981
a(I1409352129
I1
I1
tp982
a(I1409353240
I4
I1
tp983
a(I1409354145
I29
I3
tp984
a(I1409355646
I7
I2
tp985
a(I1409356594
I3
I1
tp986
a(I1409362550
I1
I1
tp987
a(I1409366518
I1
I1
tp988
a(I1409370518
I1
I1
tp989
a(I1409374518
I1
I1
tp990
a(I1409379291
I8
I1
tp991
a(I1409383317
I8
I2
tp992
a(I1409385001
I2
I1
tp993
a(I1409386666
I3
I1
tp994
a(I1409387959
I1
I1
tp995
a(I1409390210
I9
I2
tp996
a(I1409391142
I12
I1
tp997
a(I1409392144
I18
I3
tp998
a(I1409393258
I19
I3
tp999
a(I1409394214
I14
I3
tp1000
a(I1409395117
I12
I2
tp1001
a(I1409396091
I13
I2
tp1002
a(I1409397056
I15
I2
tp1003
a(I1409398056
I16
I1
tp1004
a(I1409399005
I10
I2
tp1005
a(I1409399909
I10
I2
tp1006
a(I1409400903
I17
I3
tp1007
a(I1409401819
I17
I1
tp1008
a(I1409402720
I9
I2
tp1009
a(I1409403845
I4
I1
tp1010
a(I1409405176
I6
I2
tp1011
a(I1409406589
I12
I2
tp1012
a(I1409407590
I19
I2
tp1013
a(I1409408527
I13
I1
tp1014
a(I1409409450
I11
I1
tp1015
a(I1409410389
I12
I1
tp1016
a(I1409411307
I12
I2
tp1017
a(I1409412234
I9
I1
tp1018
a(I1409413187
I17
I3
tp1019
a(I1409414119
I7
I1
tp1020
a(I1409417136
I8
I1
tp1021
a(I1409418114
I15
I2
tp1022
a(I1409419052
I12
I3
tp1023
a(I1409419995
I10
I2
tp1024
a(I1409421626
I6
I2
tp1025
a(I1409422681
I8
I2
tp1026
a(I1409423655
I7
I4
tp1027
a(I1409424689
I12
I3
tp1028
a(I1409425635
I14
I2
tp1029
a(I1409426779
I3
I1
tp1030
a(I1409427752
I8
I2
tp1031
a(I1409428701
I12
I3
tp1032
a(I1409429734
I3
I1
tp1033
a(I1409431128
I12
I3
tp1034
a(I1409432137
I5
I1
tp1035
a(I1409433949
I5
I2
tp1036
a(I1409435220
I16
I2
tp1037
a(I1409436128
I20
I2
tp1038
a(I1409437034
I5
I2
tp1039
a(I1409442463
I1
I1
tp1040
a(I1409444232
I8
I2
tp1041
a(I1409446344
I1
I1
tp1042
a(I1409454665
I3
I1
tp1043
a(I1409455937
I6
I2
tp1044
a(I1409460480
I1
I1
tp1045
a(I1409461911
I1
I1
tp1046
a(I1409463662
I1
I1
tp1047
a(I1409465420
I9
I1
tp1048
a(I1409466352
I3
I1
tp1049
a(I1409467446
I2
I1
tp1050
a(I1409468651
I8
I2
tp1051
a(I1409470348
I2
I1
tp1052
a(I1409471916
I1
I1
tp1053
a(I1409474262
I7
I1
tp1054
a(I1409475365
I3
I1
tp1055
a(I1409478381
I7
I1
tp1056
a(I1409479391
I12
I1
tp1057
a(I1409480302
I19
I3
tp1058
a(I1409481285
I16
I3
tp1059
a(I1409482269
I15
I2
tp1060
a(I1409483175
I14
I2
tp1061
a(I1409484302
I6
I1
tp1062
a(I1409485266
I10
I2
tp1063
a(I1409486275
I7
I2
tp1064
a(I1409487433
I11
I2
tp1065
a(I1409488365
I16
I3
tp1066
a(I1409489291
I20
I3
tp1067
a(I1409490230
I14
I1
tp1068
a(I1409491147
I13
I3
tp1069
a(I1409492246
I14
I2
tp1070
a(I1409493280
I10
I1
tp1071
a(I1409494196
I11
I2
tp1072
a(I1409495165
I11
I1
tp1073
a(I1409496085
I8
I1
tp1074
a(I1409497080
I11
I1
tp1075
a(I1409498010
I7
I2
tp1076
a(I1409499054
I8
I1
tp1077
a(I1409500111
I13
I2
tp1078
a(I1409501103
I11
I2
tp1079
a(I1409502020
I29
I3
tp1080
a(I1409502958
I27
I3
tp1081
a(I1409504025
I15
I1
tp1082
a(I1409504994
I15
I1
tp1083
a(I1409505945
I17
I3
tp1084
a(I1409506951
I9
I2
tp1085
a(I1409507870
I7
I2
tp1086
a(I1409509198
I12
I2
tp1087
a(I1409510153
I6
I1
tp1088
a(I1409511057
I9
I2
tp1089
a(I1409512004
I24
I3
tp1090
a(I1409512999
I11
I2
tp1091
a(I1409513928
I12
I2
tp1092
a(I1409514860
I5
I2
tp1093
a(I1409515841
I9
I2
tp1094
a(I1409517454
I13
I2
tp1095
a(I1409518368
I3
I2
tp1096
a(I1409519394
I15
I2
tp1097
a(I1409520373
I5
I2
tp1098
a(I1409521290
I6
I1
tp1099
a(I1409522253
I10
I2
tp1100
a(I1409523185
I4
I1
tp1101
a(I1409524776
I8
I1
tp1102
a(I1409525821
I4
I1
tp1103
a(I1409526952
I22
I3
tp1104
a(I1409527860
I16
I2
tp1105
a(I1409528782
I9
I1
tp1106
a(I1409530223
I1
I1
tp1107
a(I1409533627
I6
I2
tp1108
a(I1409537971
I1
I1
tp1109
a(I1409540404
I1
I1
tp1110
a(I1409545764
I8
I1
tp1111
a(I1409550933
I1
I1
tp1112
a(I1409552794
I1
I1
tp1113
a(I1409554431
I7
I2
tp1114
a(I1409555536
I1
I1
tp1115
a(I1409557025
I1
I1
tp1116
a(I1409558269
I1
I1
tp1117
a(I1409560123
I9
I2
tp1118
a(I1409561083
I10
I1
tp1119
a(I1409561996
I17
I3
tp1120
a(I1409562913
I18
I3
tp1121
a(I1409563924
I16
I3
tp1122
a(I1409564831
I25
I3
tp1123
a(I1409565828
I29
I3
tp1124
a(I1409566760
I11
I3
tp1125
a(I1409567680
I13
I3
tp1126
a(I1409568624
I13
I3
tp1127
a(I1409569623
I14
I2
tp1128
a(I1409570554
I20
I1
tp1129
a(I1409571471
I21
I2
tp1130
a(I1409572412
I28
I3
tp1131
a(I1409573388
I14
I3
tp1132
a(I1409574295
I9
I1
tp1133
a(I1409575288
I11
I2
tp1134
a(I1409576191
I11
I2
tp1135
a(I1409577176
I17
I3
tp1136
a(I1409578148
I10
I3
tp1137
a(I1409579118
I8
I2
tp1138
a(I1409580106
I3
I2
tp1139
a(I1409581083
I13
I2
tp1140
a(I1409582009
I14
I2
tp1141
a(I1409582943
I6
I3
tp1142
a(I1409583856
I14
I2
tp1143
a(I1409584815
I9
I1
tp1144
a(I1409586103
I7
I1
tp1145
a(I1409587060
I9
I2
tp1146
a(I1409588111
I8
I1
tp1147
a(I1409589101
I11
I2
tp1148
a(I1409590104
I8
I2
tp1149
a(I1409591138
I12
I1
tp1150
a(I1409592044
I22
I2
tp1151
a(I1409592963
I12
I2
tp1152
a(I1409593901
I13
I2
tp1153
a(I1409594958
I13
I2
tp1154
a(I1409596107
I2
I2
tp1155
a(I1409598024
I22
I3
tp1156
a(I1409599210
I11
I2
tp1157
a(I1409600217
I7
I2
tp1158
a(I1409601153
I8
I2
tp1159
a(I1409602128
I17
I3
tp1160
a(I1409603068
I7
I2
tp1161
a(I1409604259
I8
I2
tp1162
a(I1409605221
I6
I1
tp1163
a(I1409606368
I8
I1
tp1164
a(I1409607320
I4
I1
tp1165
a(I1409608245
I6
I2
tp1166
a(I1409612349
I21
I2
tp1167
a(I1409613418
I7
I1
tp1168
a(I1409614502
I5
I2
tp1169
a(I1409618355
I1
I1
tp1170
a(I1409626908
I1
I1
tp1171
a(I1409630465
I1
I1
tp1172
a(I1409633412
I1
I1
tp1173
a(I1409637794
I8
I1
tp1174
a(I1409638906
I4
I1
tp1175
a(I1409641129
I2
I1
tp1176
a(I1409643926
I9
I2
tp1177
a(I1409644951
I1
I1
tp1178
a(I1409648323
I2
I1
tp1179
a(I1409649919
I10
I2
tp1180
a(I1409650956
I12
I1
tp1181
a(I1409651967
I17
I3
tp1182
a(I1409652869
I12
I3
tp1183
a(I1409653851
I16
I2
tp1184
a(I1409654868
I14
I3
tp1185
a(I1409655856
I15
I3
tp1186
a(I1409656819
I19
I3
tp1187
a(I1409657929
I7
I1
tp1188
a(I1409658938
I19
I2
tp1189
a(I1409659897
I13
I2
tp1190
a(I1409660904
I11
I1
tp1191
a(I1409661947
I10
I2
tp1192
a(I1409662982
I12
I1
tp1193
a(I1409663953
I9
I1
tp1194
a(I1409664863
I22
I3
tp1195
a(I1409665849
I13
I2
tp1196
a(I1409666785
I11
I2
tp1197
a(I1409667810
I11
I1
tp1198
a(I1409668845
I8
I1
tp1199
a(I1409669807
I15
I3
tp1200
a(I1409670769
I17
I3
tp1201
a(I1409674093
I19
I2
tp1202
a(I1409675055
I23
I2
tp1203
a(I1409676005
I16
I2
tp1204
a(I1409676944
I15
I1
tp1205
a(I1409678063
I16
I1
tp1206
a(I1409679025
I16
I2
tp1207
a(I1409680037
I12
I2
tp1208
a(I1409680972
I22
I3
tp1209
a(I1409681911
I15
I2
tp1210
a(I1409682842
I15
I3
tp1211
a(I1409683819
I12
I2
tp1212
a(I1409684780
I14
I2
tp1213
a(I1409685729
I18
I4
tp1214
a(I1409686683
I10
I2
tp1215
a(I1409687814
I6
I2
tp1216
a(I1409688945
I6
I2
tp1217
a(I1409691492
I12
I2
tp1218
a(I1409692449
I22
I3
tp1219
a(I1409693476
I9
I2
tp1220
a(I1409694486
I4
I2
tp1221
a(I1409695470
I2
I1
tp1222
a(I1409698385
I11
I2
tp1223
a(I1409699651
I17
I3
tp1224
a(I1409700594
I11
I1
tp1225
a(I1409702479
I1
I1
tp1226
a(I1409704155
I1
I1
tp1227
a(I1409707823
I1
I1
tp1228
a(I1409709257
I4
I2
tp1229
a(I1409711728
I1
I1
tp1230
a(I1409715246
I1
I1
tp1231
a(I1409717533
I2
I1
tp1232
a(I1409719044
I1
I1
tp1233
a(I1409722968
I2
I1
tp1234
a(I1409728169
I7
I2
tp1235
a(I1409729964
I2
I1
tp1236
a(I1409731703
I2
I1
tp1237
a(I1409733785
I4
I2
tp1238
a(I1409734787
I9
I1
tp1239
a(I1409735803
I8
I1
tp1240
a(I1409736758
I18
I2
tp1241
a(I1409737683
I18
I3
tp1242
a(I1409738600
I17
I3
tp1243
a(I1409739501
I14
I3
tp1244
a(I1409740501
I22
I2
tp1245
a(I1409741411
I16
I2
tp1246
a(I1409742395
I12
I2
tp1247
a(I1409743336
I16
I3
tp1248
a(I1409744253
I15
I2
tp1249
a(I1409745186
I22
I3
tp1250
a(I1409746261
I13
I2
tp1251
a(I1409747404
I12
I2
tp1252
a(I1409748330
I12
I1
tp1253
a(I1409749260
I11
I2
tp1254
a(I1409750178
I11
I1
tp1255
a(I1409751163
I13
I2
tp1256
a(I1409752075
I9
I2
tp1257
a(I1409752999
I21
I3
tp1258
a(I1409753922
I14
I3
tp1259
a(I1409754923
I21
I2
tp1260
a(I1409755848
I16
I2
tp1261
a(I1409756846
I12
I2
tp1262
a(I1409757828
I11
I1
tp1263
a(I1409758812
I11
I1
tp1264
a(I1409759791
I12
I1
tp1265
a(I1409760693
I12
I1
tp1266
a(I1409761614
I11
I1
tp1267
a(I1409762539
I14
I2
tp1268
a(I1409763488
I21
I3
tp1269
a(I1409764425
I21
I2
tp1270
a(I1409765390
I12
I2
tp1271
a(I1409766310
I11
I1
tp1272
a(I1409767290
I13
I1
tp1273
a(I1409768191
I18
I3
tp1274
a(I1409769094
I12
I2
tp1275
a(I1409770057
I12
I2
tp1276
a(I1409771890
I14
I2
tp1277
a(I1409772910
I6
I2
tp1278
a(I1409773874
I15
I2
tp1279
a(I1409774915
I10
I2
tp1280
a(I1409776214
I9
I2
tp1281
a(I1409777115
I19
I2
tp1282
a(I1409778075
I16
I2
tp1283
a(I1409779059
I9
I2
tp1284
a(I1409780234
I6
I2
tp1285
a(I1409781429
I7
I2
tp1286
a(I1409783186
I8
I2
tp1287
a(I1409784314
I5
I2
tp1288
a(I1409786071
I21
I3
tp1289
a(I1409787095
I5
I1
tp1290
a(I1409788105
I8
I1
tp1291
a(I1409789119
I3
I1
tp1292
a(I1409793060
I1
I1
tp1293
a(I1409801948
I6
I1
tp1294
a(I1409803066
I3
I1
tp1295
a(I1409804147
I1
I1
tp1296
a(I1409805296
I1
I1
tp1297
a(I1409807950
I2
I1
tp1298
a(I1409811078
I2
I1
tp1299
a(I1409812650
I9
I2
tp1300
a(I1409814731
I3
I1
tp1301
a(I1409816825
I8
I1
tp1302
a(I1409817822
I1
I1
tp1303
a(I1409819408
I6
I1
tp1304
a(I1409820398
I9
I1
tp1305
a(I1409821381
I15
I2
tp1306
a(I1409822308
I18
I3
tp1307
a(I1409823295
I15
I3
tp1308
a(I1409824206
I13
I2
tp1309
a(I1409825133
I13
I3
tp1310
a(I1409826136
I16
I3
tp1311
a(I1409827053
I19
I2
tp1312
a(I1409827964
I15
I3
tp1313
a(I1409828937
I2
I1
tp1314
a(I1409848478
I19
I2
tp1315
a(I1409849418
I17
I3
tp1316
a(I1409850406
I19
I2
tp1317
a(I1409851393
I8
I1
tp1318
a(I1409852645
I17
I3
tp1319
a(I1409853588
I9
I1
tp1320
a(I1409854508
I2
I2
tp1321
a(I1409856994
I4
I2
tp1322
a(I1409858120
I13
I2
tp1323
a(I1409859090
I6
I2
tp1324
a(I1409860323
I12
I2
tp1325
a(I1409861252
I12
I2
tp1326
a(I1409862290
I6
I2
tp1327
a(I1409864202
I7
I2
tp1328
a(I1409865122
I7
I3
tp1329
a(I1409866155
I6
I2
tp1330
a(I1409867182
I2
I2
tp1331
a(I1409870174
I18
I3
tp1332
a(I1409871138
I13
I2
tp1333
a(I1409872140
I7
I1
tp1334
a(I1409873313
I3
I1
tp1335
a(I1409875234
I3
I1
tp1336
a(I1409887810
I1
I1
tp1337
a(I1409889763
I1
I1
tp1338
a(I1409891986
I1
I1
tp1339
a(I1409896566
I2
I1
tp1340
a(I1409899591
I7
I2
tp1341
a(I1409900718
I3
I1
tp1342
a(I1409902042
I2
I1
tp1343
a(I1409903599
I4
I1
tp1344
a(I1409905081
I11
I2
tp1345
a(I1409906018
I7
I1
tp1346
a(I1409906965
I10
I1
tp1347
a(I1409907886
I19
I4
tp1348
a(I1409908794
I16
I2
tp1349
a(I1409909720
I41
I3
tp1350
a(I1409910775
I18
I3
tp1351
a(I1409911912
I15
I2
tp1352
a(I1409912895
I18
I4
tp1353
a(I1409913886
I18
I3
tp1354
a(I1409914853
I24
I3
tp1355
a(I1409915868
I19
I4
tp1356
a(I1409916837
I7
I1
tp1357
a(I1409918892
I12
I1
tp1358
a(I1409919800
I12
I3
tp1359
a(I1409920773
I15
I2
tp1360
a(I1409921752
I14
I2
tp1361
a(I1409922789
I11
I3
tp1362
a(I1409923799
I12
I3
tp1363
a(I1409924791
I8
I1
tp1364
a(I1409925762
I19
I2
tp1365
a(I1409926763
I12
I1
tp1366
a(I1409927678
I12
I2
tp1367
a(I1409928748
I9
I1
tp1368
a(I1409929754
I9
I1
tp1369
a(I1409930726
I7
I1
tp1370
a(I1409931719
I11
I3
tp1371
a(I1409932720
I11
I3
tp1372
a(I1409933720
I14
I3
tp1373
a(I1409935909
I13
I2
tp1374
a(I1409936896
I18
I3
tp1375
a(I1409937797
I13
I2
tp1376
a(I1409938773
I10
I1
tp1377
a(I1409939761
I9
I1
tp1378
a(I1409940690
I16
I3
tp1379
a(I1409941636
I10
I1
tp1380
a(I1409942656
I26
I3
tp1381
a(I1409943641
I21
I3
tp1382
a(I1409944862
I16
I2
tp1383
a(I1409945798
I20
I2
tp1384
a(I1409946765
I28
I3
tp1385
a(I1409947740
I21
I5
tp1386
a(I1409948702
I20
I1
tp1387
a(I1409949680
I15
I2
tp1388
a(I1409950598
I21
I2
tp1389
a(I1409951527
I17
I2
tp1390
a(I1409952513
I10
I2
tp1391
a(I1409953415
I14
I1
tp1392
a(I1409954333
I11
I2
tp1393
a(I1409955339
I12
I2
tp1394
a(I1409956340
I21
I2
tp1395
a(I1409957313
I11
I3
tp1396
a(I1409958338
I10
I1
tp1397
a(I1409959314
I19
I3
tp1398
a(I1409960349
I13
I2
tp1399
a(I1409961290
I9
I1
tp1400
a(I1409962249
I2
I1
tp1401
a(I1409963314
I1
I1
tp1402
a(I1409966500
I1
I1
tp1403
a(I1409967590
I1
I1
tp1404
a(I1409976044
I6
I1
tp1405
a(I1409984426
I1
I1
tp1406
a(I1409986444
I1
I1
tp1407
a(I1409988662
I9
I2
tp1408
a(I1409990297
I3
I1
tp1409
a(I1409991813
I1
I1
tp1410
a(I1409994270
I7
I1
tp1411
a(I1409995190
I5
I1
tp1412
a(I1409996201
I8
I1
tp1413
a(I1409997216
I20
I3
tp1414
a(I1409998171
I15
I3
tp1415
a(I1409999133
I17
I3
tp1416
a(I1410000066
I17
I2
tp1417
a(I1410001030
I13
I3
tp1418
a(I1410002035
I8
I1
tp1419
a(I1410003010
I19
I2
tp1420
a(I1410003927
I24
I3
tp1421
a(I1410004898
I12
I2
tp1422
a(I1410005906
I7
I2
tp1423
a(I1410006950
I12
I3
tp1424
a(I1410007851
I18
I3
tp1425
a(I1410008752
I11
I2
tp1426
a(I1410009687
I13
I1
tp1427
a(I1410010645
I5
I1
tp1428
a(I1410011547
I10
I1
tp1429
a(I1410012509
I10
I2
tp1430
a(I1410013503
I15
I2
tp1431
a(I1410014472
I13
I2
tp1432
a(I1410015414
I10
I2
tp1433
a(I1410016361
I9
I2
tp1434
a(I1410017298
I12
I1
tp1435
a(I1410018280
I11
I2
tp1436
a(I1410019226
I18
I1
tp1437
a(I1410020181
I16
I1
tp1438
a(I1410021159
I10
I2
tp1439
a(I1410022068
I10
I2
tp1440
a(I1410023238
I11
I2
tp1441
a(I1410024463
I11
I1
tp1442
a(I1410025401
I22
I3
tp1443
a(I1410026305
I12
I2
tp1444
a(I1410027258
I15
I2
tp1445
a(I1410028402
I5
I2
tp1446
a(I1410029412
I7
I2
tp1447
a(I1410030356
I15
I2
tp1448
a(I1410031291
I3
I1
tp1449
a(I1410032344
I8
I2
tp1450
a(I1410033302
I11
I3
tp1451
a(I1410034218
I6
I2
tp1452
a(I1410035205
I17
I2
tp1453
a(I1410036217
I9
I2
tp1454
a(I1410037332
I14
I3
tp1455
a(I1410038361
I2
I2
tp1456
a(I1410039988
I2
I1
tp1457
a(I1410041900
I5
I2
tp1458
a(I1410043382
I6
I2
tp1459
a(I1410044366
I15
I2
tp1460
a(I1410045363
I13
I2
tp1461
a(I1410046375
I7
I1
tp1462
a(I1410049257
I1
I1
tp1463
a(I1410050818
I4
I1
tp1464
a(I1410051778
I3
I1
tp1465
a(I1410066140
I8
I1
tp1466
a(I1410067041
I6
I1
tp1467
a(I1410068007
I2
I1
tp1468
a(I1410071969
I8
I1
tp1469
a(I1410073023
I2
I1
tp1470
a(I1410074108
I4
I1
tp1471
a(I1410076746
I1
I1
tp1472
a(I1410078078
I5
I2
tp1473
a(I1410079021
I10
I2
tp1474
a(I1410080304
I6
I1
tp1475
a(I1410081291
I3
I1
tp1476
a(I1410084168
I7
I1
tp1477
a(I1410085076
I13
I1
tp1478
a(I1410086068
I13
I3
tp1479
a(I1410086974
I14
I2
tp1480
a(I1410087944
I13
I2
tp1481
a(I1410088901
I16
I2
tp1482
a(I1410089813
I17
I3
tp1483
a(I1410090724
I11
I2
tp1484
a(I1410091663
I11
I3
tp1485
a(I1410092693
I11
I1
tp1486
a(I1410093635
I15
I3
tp1487
a(I1410094564
I11
I2
tp1488
a(I1410095526
I15
I3
tp1489
a(I1410096428
I6
I1
tp1490
a(I1410097618
I18
I3
tp1491
a(I1410098560
I17
I2
tp1492
a(I1410099478
I12
I2
tp1493
a(I1410100424
I7
I2
tp1494
a(I1410102037
I6
I2
tp1495
a(I1410103696
I20
I2
tp1496
a(I1410104597
I12
I2
tp1497
a(I1410105502
I12
I2
tp1498
a(I1410106412
I11
I1
tp1499
a(I1410107317
I11
I1
tp1500
a(I1410108250
I15
I1
tp1501
a(I1410109243
I12
I2
tp1502
a(I1410110176
I17
I3
tp1503
a(I1410111116
I14
I2
tp1504
a(I1410112050
I17
I2
tp1505
a(I1410113043
I15
I2
tp1506
a(I1410113974
I13
I2
tp1507
a(I1410115486
I1
I1
tp1508
a(I1410117593
I7
I1
tp1509
a(I1410118536
I11
I4
tp1510
a(I1410119462
I14
I2
tp1511
a(I1410120374
I13
I3
tp1512
a(I1410121727
I6
I2
tp1513
a(I1410122792
I13
I2
tp1514
a(I1410123697
I6
I2
tp1515
a(I1410124752
I10
I2
tp1516
a(I1410125757
I10
I2
tp1517
a(I1410126760
I7
I2
tp1518
a(I1410127846
I2
I1
tp1519
a(I1410129752
I9
I2
tp1520
a(I1410130694
I19
I3
tp1521
a(I1410131736
I5
I1
tp1522
a(I1410132672
I4
I1
tp1523
a(I1410134322
I3
I1
tp1524
a(I1410135665
I1
I1
tp1525
a(I1410141870
I2
I1
tp1526
a(I1410145238
I7
I1
tp1527
a(I1410149592
I1
I1
tp1528
a(I1410151490
I2
I1
tp1529
a(I1410156701
I1
I1
tp1530
a(I1410157687
I1
I1
tp1531
a(I1410160559
I8
I1
tp1532
a(I1410161831
I2
I1
tp1533
a(I1410162959
I2
I1
tp1534
a(I1410164192
I1
I1
tp1535
a(I1410166509
I8
I1
tp1536
a(I1410167437
I11
I2
tp1537
a(I1410168366
I19
I2
tp1538
a(I1410169349
I17
I3
tp1539
a(I1410170350
I19
I1
tp1540
a(I1410171291
I18
I2
tp1541
a(I1410172202
I21
I3
tp1542
a(I1410173224
I24
I3
tp1543
a(I1410174162
I21
I3
tp1544
a(I1410175099
I27
I3
tp1545
a(I1410176011
I24
I4
tp1546
a(I1410177003
I13
I2
tp1547
a(I1410177943
I8
I2
tp1548
a(I1410178867
I13
I1
tp1549
a(I1410179771
I12
I1
tp1550
a(I1410180689
I15
I2
tp1551
a(I1410181595
I14
I2
tp1552
a(I1410182594
I13
I2
tp1553
a(I1410183569
I9
I2
tp1554
a(I1410185491
I8
I1
tp1555
a(I1410186418
I15
I3
tp1556
a(I1410187459
I9
I2
tp1557
a(I1410188830
I10
I2
tp1558
a(I1410190311
I9
I2
tp1559
a(I1410192015
I8
I2
tp1560
a(I1410192968
I8
I2
tp1561
a(I1410194934
I1
I1
tp1562
a(I1410195992
I11
I2
tp1563
a(I1410196913
I11
I3
tp1564
a(I1410198580
I19
I2
tp1565
a(I1410199558
I5
I2
tp1566
a(I1410200540
I6
I2
tp1567
a(I1410201528
I4
I2
tp1568
a(I1410202502
I17
I2
tp1569
a(I1410203458
I11
I2
tp1570
a(I1410205220
I4
I2
tp1571
a(I1410206356
I12
I2
tp1572
a(I1410207300
I15
I3
tp1573
a(I1410208444
I12
I2
tp1574
a(I1410210126
I4
I2
tp1575
a(I1410211854
I1
I1
tp1576
a(I1410212854
I13
I2
tp1577
a(I1410215852
I1
I1
tp1578
a(I1410217037
I5
I2
tp1579
a(I1410218543
I1
I1
tp1580
a(I1410219915
I6
I2
tp1581
a(I1410221242
I17
I2
tp1582
a(I1410222269
I20
I2
tp1583
a(I1410223261
I8
I1
tp1584
a(I1410224348
I2
I1
tp1585
a(I1410228273
I4
I2
tp1586
a(I1410229780
I4
I1
tp1587
a(I1410231601
I4
I1
tp1588
a(I1410232522
I3
I1
tp1589
a(I1410238759
I1
I1
tp1590
a(I1410239842
I6
I1
tp1591
a(I1410247817
I3
I1
tp1592
a(I1410249131
I7
I1
tp1593
a(I1410250429
I4
I1
tp1594
a(I1410251364
I7
I2
tp1595
a(I1410252275
I8
I1
tp1596
a(I1410253255
I11
I1
tp1597
a(I1410254166
I24
I3
tp1598
a(I1410255078
I20
I3
tp1599
a(I1410255990
I13
I2
tp1600
a(I1410256990
I12
I2
tp1601
a(I1410257963
I9
I2
tp1602
a(I1410258933
I17
I2
tp1603
a(I1410259901
I13
I2
tp1604
a(I1410260822
I2
I1
tp1605
a(I1410261809
I18
I3
tp1606
a(I1410262718
I21
I3
tp1607
a(I1410263628
I9
I3
tp1608
a(I1410264558
I10
I2
tp1609
a(I1410265523
I15
I3
tp1610
a(I1410266425
I12
I1
tp1611
a(I1410267481
I8
I1
tp1612
a(I1410268448
I15
I2
tp1613
a(I1410269377
I19
I3
tp1614
a(I1410270444
I24
I2
tp1615
a(I1410271352
I12
I2
tp1616
a(I1410272342
I11
I2
tp1617
a(I1410273309
I11
I2
tp1618
a(I1410274288
I6
I1
tp1619
a(I1410275557
I9
I1
tp1620
a(I1410276869
I5
I1
tp1621
a(I1410277948
I16
I3
tp1622
a(I1410278933
I19
I3
tp1623
a(I1410279929
I13
I2
tp1624
a(I1410280835
I13
I2
tp1625
a(I1410281808
I13
I1
tp1626
a(I1410282747
I14
I1
tp1627
a(I1410283661
I15
I2
tp1628
a(I1410284614
I17
I2
tp1629
a(I1410285537
I16
I3
tp1630
a(I1410286442
I17
I2
tp1631
a(I1410287383
I16
I3
tp1632
a(I1410288294
I14
I1
tp1633
a(I1410289258
I18
I2
tp1634
a(I1410290340
I20
I3
tp1635
a(I1410291546
I5
I2
tp1636
a(I1410292723
I7
I2
tp1637
a(I1410294028
I1
I1
tp1638
a(I1410296101
I9
I2
tp1639
a(I1410297041
I13
I3
tp1640
a(I1410299206
I3
I1
tp1641
a(I1410300149
I23
I3
tp1642
a(I1410301107
I8
I1
tp1643
a(I1410302104
I7
I1
tp1644
a(I1410303014
I8
I1
tp1645
a(I1410304016
I13
I3
tp1646
a(I1410304983
I14
I2
tp1647
a(I1410305913
I7
I1
tp1648
a(I1410306879
I7
I1
tp1649
a(I1410308923
I1
I1
tp1650
a(I1410311033
I3
I1
tp1651
a(I1410318790
I1
I1
tp1652
a(I1410320576
I2
I1
tp1653
a(I1410322720
I1
I1
tp1654
a(I1410327251
I1
I1
tp1655
a(I1410328702
I1
I1
tp1656
a(I1410330126
I7
I1
tp1657
a(I1410331139
I3
I1
tp1658
a(I1410332576
I2
I1
tp1659
a(I1410333599
I4
I1
tp1660
a(I1410335930
I3
I1
tp1661
a(I1410338201
I10
I1
tp1662
a(I1410339238
I9
I1
tp1663
a(I1410340140
I15
I2
tp1664
a(I1410341050
I22
I3
tp1665
a(I1410341955
I28
I3
tp1666
a(I1410342913
I13
I3
tp1667
a(I1410343844
I14
I2
tp1668
a(I1410344897
I19
I2
tp1669
a(I1410345802
I6
I1
tp1670
a(I1410346740
I21
I3
tp1671
a(I1410347747
I10
I2
tp1672
a(I1410348800
I21
I2
tp1673
a(I1410349776
I14
I1
tp1674
a(I1410350737
I16
I2
tp1675
a(I1410351745
I12
I1
tp1676
a(I1410352739
I10
I2
tp1677
a(I1410353661
I18
I2
tp1678
a(I1410354600
I9
I2
tp1679
a(I1410355528
I10
I1
tp1680
a(I1410356470
I11
I1
tp1681
a(I1410357417
I14
I2
tp1682
a(I1410358389
I14
I3
tp1683
a(I1410359345
I10
I1
tp1684
a(I1410360273
I13
I2
tp1685
a(I1410361227
I20
I2
tp1686
a(I1410362142
I18
I3
tp1687
a(I1410363049
I15
I1
tp1688
a(I1410363968
I11
I1
tp1689
a(I1410364924
I16
I1
tp1690
a(I1410365898
I15
I2
tp1691
a(I1410366799
I12
I2
tp1692
a(I1410367724
I2
I2
tp1693
a(I1410369974
I8
I2
tp1694
a(I1410371691
I11
I2
tp1695
a(I1410372678
I15
I2
tp1696
a(I1410373644
I11
I2
tp1697
a(I1410374611
I16
I2
tp1698
a(I1410375616
I8
I2
tp1699
a(I1410377442
I6
I2
tp1700
a(I1410378955
I1
I1
tp1701
a(I1410379880
I16
I3
tp1702
a(I1410380899
I2
I1
tp1703
a(I1410382723
I8
I2
tp1704
a(I1410384021
I4
I2
tp1705
a(I1410384922
I3
I1
tp1706
a(I1410385827
I12
I2
tp1707
a(I1410386754
I25
I3
tp1708
a(I1410387745
I12
I3
tp1709
a(I1410389623
I5
I2
tp1710
a(I1410390696
I7
I2
tp1711
a(I1410391611
I15
I2
tp1712
a(I1410392572
I8
I1
tp1713
a(I1410394527
I2
I1
tp1714
a(I1410397384
I1
I1
tp1715
a(I1410407896
I7
I1
tp1716
a(I1410413578
I1
I1
tp1717
a(I1410415764
I2
I1
tp1718
a(I1410419536
I10
I1
tp1719
a(I1410420673
I4
I1
tp1720
a(I1410421659
I2
I1
tp1721
a(I1410423150
I9
I1
tp1722
a(I1410424072
I10
I1
tp1723
a(I1410425094
I24
I3
tp1724
a(I1410426110
I22
I3
tp1725
a(I1410427100
I16
I1
tp1726
a(I1410428154
I23
I3
tp1727
a(I1410429070
I17
I3
tp1728
a(I1410430083
I2
I1
tp1729
a(I1410452938
I12
I1
tp1730
a(I1410453847
I10
I3
tp1731
a(I1410454845
I18
I3
tp1732
a(I1410455769
I12
I2
tp1733
a(I1410456724
I10
I2
tp1734
a(I1410457704
I12
I1
tp1735
a(I1410458621
I9
I2
tp1736
a(I1410459541
I14
I2
tp1737
a(I1410460528
I17
I2
tp1738
a(I1410461524
I14
I1
tp1739
a(I1410462537
I11
I3
tp1740
a(I1410463522
I12
I2
tp1741
a(I1410464674
I5
I2
tp1742
a(I1410465741
I2
I1
tp1743
a(I1410466793
I8
I2
tp1744
a(I1410467694
I13
I2
tp1745
a(I1410469235
I9
I2
tp1746
a(I1410470204
I2
I1
tp1747
a(I1410472199
I4
I1
tp1748
a(I1410473191
I5
I1
tp1749
a(I1410474255
I16
I3
tp1750
a(I1410475172
I19
I2
tp1751
a(I1410476110
I7
I1
tp1752
a(I1410477558
I1
I1
tp1753
a(I1410479429
I7
I1
tp1754
a(I1410480385
I11
I1
tp1755
a(I1410481292
I3
I1
tp1756
a(I1410482211
I2
I1
tp1757
a(I1410491045
I1
I1
tp1758
a(I1410494208
I1
I1
tp1759
a(I1410495698
I6
I1
tp1760
a(I1410504360
I10
I2
tp1761
a(I1410505432
I4
I1
tp1762
a(I1410506770
I3
I1
tp1763
a(I1410508672
I3
I1
tp1764
a(I1410510120
I4
I1
tp1765
a(I1410511117
I5
I1
tp1766
a(I1410512055
I10
I2
tp1767
a(I1410513009
I9
I1
tp1768
a(I1410513993
I11
I1
tp1769
a(I1410514977
I23
I2
tp1770
a(I1410515982
I19
I3
tp1771
a(I1410516909
I12
I2
tp1772
a(I1410517850
I17
I2
tp1773
a(I1410518782
I14
I2
tp1774
a(I1410519766
I17
I2
tp1775
a(I1410520792
I14
I2
tp1776
a(I1410521733
I21
I2
tp1777
a(I1410522667
I18
I3
tp1778
a(I1410523594
I19
I2
tp1779
a(I1410524565
I16
I2
tp1780
a(I1410525478
I11
I2
tp1781
a(I1410526396
I13
I2
tp1782
a(I1410527431
I16
I2
tp1783
a(I1410528383
I10
I2
tp1784
a(I1410529288
I13
I2
tp1785
a(I1410530222
I13
I2
tp1786
a(I1410531204
I11
I1
tp1787
a(I1410532112
I7
I1
tp1788
a(I1410533026
I10
I1
tp1789
a(I1410533948
I9
I1
tp1790
a(I1410534892
I18
I3
tp1791
a(I1410535823
I15
I2
tp1792
a(I1410536755
I19
I2
tp1793
a(I1410537701
I23
I4
tp1794
a(I1410538804
I23
I3
tp1795
a(I1410539769
I12
I1
tp1796
a(I1410540735
I17
I2
tp1797
a(I1410541674
I15
I1
tp1798
a(I1410542585
I18
I4
tp1799
a(I1410543540
I16
I3
tp1800
a(I1410544476
I9
I1
tp1801
a(I1410545470
I15
I1
tp1802
a(I1410546429
I14
I2
tp1803
a(I1410547371
I28
I4
tp1804
a(I1410548277
I8
I1
tp1805
a(I1410549226
I12
I2
tp1806
a(I1410550148
I10
I2
tp1807
a(I1410551157
I11
I2
tp1808
a(I1410552155
I7
I1
tp1809
a(I1410553883
I12
I2
tp1810
a(I1410554837
I6
I2
tp1811
a(I1410556113
I7
I1
tp1812
a(I1410557017
I12
I2
tp1813
a(I1410560445
I2
I1
tp1814
a(I1410561743
I10
I2
tp1815
a(I1410563318
I6
I2
tp1816
a(I1410564373
I1
I1
tp1817
a(I1410565551
I22
I2
tp1818
a(I1410566477
I11
I2
tp1819
a(I1410567558
I4
I1
tp1820
a(I1410568610
I1
I1
tp1821
a(I1410572324
I1
I1
tp1822
a(I1410580419
I6
I1
tp1823
a(I1410588719
I1
I1
tp1824
a(I1410590969
I1
I1
tp1825
a(I1410593105
I8
I1
tp1826
a(I1410594039
I3
I1
tp1827
a(I1410595857
I3
I1
tp1828
a(I1410597734
I3
I1
tp1829
a(I1410598679
I8
I2
tp1830
a(I1410599610
I8
I1
tp1831
a(I1410600560
I12
I2
tp1832
a(I1410601536
I23
I3
tp1833
a(I1410602476
I23
I3
tp1834
a(I1410603427
I13
I2
tp1835
a(I1410604446
I14
I2
tp1836
a(I1410605380
I12
I1
tp1837
a(I1410606297
I26
I3
tp1838
a(I1410607309
I6
I1
tp1839
a(I1410608856
I13
I3
tp1840
a(I1410609808
I11
I3
tp1841
a(I1410610786
I26
I3
tp1842
a(I1410611731
I13
I1
tp1843
a(I1410612736
I9
I1
tp1844
a(I1410613682
I9
I1
tp1845
a(I1410614630
I8
I2
tp1846
a(I1410615543
I10
I2
tp1847
a(I1410616453
I13
I3
tp1848
a(I1410617372
I12
I2
tp1849
a(I1410618342
I8
I1
tp1850
a(I1410619301
I11
I1
tp1851
a(I1410620220
I9
I1
tp1852
a(I1410621219
I12
I2
tp1853
a(I1410622159
I22
I3
tp1854
a(I1410623073
I15
I1
tp1855
a(I1410624054
I14
I2
tp1856
a(I1410625032
I15
I1
tp1857
a(I1410626016
I13
I1
tp1858
a(I1410627014
I14
I2
tp1859
a(I1410628018
I14
I1
tp1860
a(I1410628996
I19
I2
tp1861
a(I1410630000
I16
I2
tp1862
a(I1410630903
I13
I2
tp1863
a(I1410631845
I5
I2
tp1864
a(I1410633484
I4
I1
tp1865
a(I1410634737
I9
I2
tp1866
a(I1410635642
I13
I3
tp1867
a(I1410636558
I11
I2
tp1868
a(I1410637548
I6
I2
tp1869
a(I1410639291
I11
I3
tp1870
a(I1410640428
I9
I2
tp1871
a(I1410641393
I5
I2
tp1872
a(I1410642338
I3
I1
tp1873
a(I1410643763
I19
I2
tp1874
a(I1410644764
I6
I2
tp1875
a(I1410646826
I4
I2
tp1876
a(I1410649159
I10
I3
tp1877
a(I1410650861
I9
I2
tp1878
a(I1410651809
I15
I2
tp1879
a(I1410652737
I15
I2
tp1880
a(I1410653642
I6
I1
tp1881
a(I1410654921
I1
I1
tp1882
a(I1410656369
I1
I1
tp1883
a(I1410659467
I1
I1
tp1884
a(I1410661332
I1
I1
tp1885
a(I1410663758
I1
I1
tp1886
a(I1410670669
I6
I2
tp1887
a(I1410672405
I2
I1
tp1888
a(I1410673684
I3
I1
tp1889
a(I1410675020
I2
I1
tp1890
a(I1410678377
I1
I1
tp1891
a(I1410679365
I1
I1
tp1892
a(I1410680786
I7
I2
tp1893
a(I1410682274
I2
I1
tp1894
a(I1410684061
I6
I1
tp1895
a(I1410685167
I11
I1
tp1896
a(I1410686190
I4
I1
tp1897
a(I1410687121
I4
I1
tp1898
a(I1410688030
I2
I1
tp1899
a(I1410689054
I7
I1
tp1900
a(I1410690069
I12
I1
tp1901
a(I1410691013
I25
I3
tp1902
a(I1410691939
I18
I3
tp1903
a(I1410692893
I15
I1
tp1904
a(I1410693845
I17
I3
tp1905
a(I1410694784
I11
I3
tp1906
a(I1410695760
I12
I3
tp1907
a(I1410696670
I21
I3
tp1908
a(I1410697655
I14
I3
tp1909
a(I1410698650
I11
I3
tp1910
a(I1410699624
I19
I3
tp1911
a(I1410700539
I7
I1
tp1912
a(I1410701443
I12
I1
tp1913
a(I1410702429
I11
I1
tp1914
a(I1410703343
I14
I1
tp1915
a(I1410704334
I9
I2
tp1916
a(I1410705291
I8
I1
tp1917
a(I1410706211
I17
I3
tp1918
a(I1410707728
I10
I2
tp1919
a(I1410709775
I5
I2
tp1920
a(I1410710871
I14
I3
tp1921
a(I1410711896
I19
I2
tp1922
a(I1410712822
I24
I2
tp1923
a(I1410713898
I12
I2
tp1924
a(I1410714833
I11
I1
tp1925
a(I1410715776
I10
I1
tp1926
a(I1410716738
I12
I1
tp1927
a(I1410717739
I13
I1
tp1928
a(I1410718664
I15
I4
tp1929
a(I1410719698
I8
I1
tp1930
a(I1410720615
I15
I3
tp1931
a(I1410721749
I15
I2
tp1932
a(I1410722714
I6
I2
tp1933
a(I1410723834
I8
I2
tp1934
a(I1410724799
I10
I2
tp1935
a(I1410726708
I4
I2
tp1936
a(I1410727680
I11
I2
tp1937
a(I1410728676
I7
I1
tp1938
a(I1410729686
I6
I2
tp1939
a(I1410731765
I3
I1
tp1940
a(I1410733133
I15
I2
tp1941
a(I1410734163
I20
I2
tp1942
a(I1410735077
I8
I1
tp1943
a(I1410736097
I5
I1
tp1944
a(I1410738263
I2
I1
tp1945
a(I1410739373
I1
I1
tp1946
a(I1410749091
I4
I1
tp1947
a(I1410756938
I2
I1
tp1948
a(I1410759456
I1
I1
tp1949
a(I1410763403
I1
I1
tp1950
a(I1410764544
I9
I2
tp1951
a(I1410766617
I3
I1
tp1952
a(I1410768142
I1
I1
tp1953
a(I1410769769
I9
I2
tp1954
a(I1410770689
I10
I1
tp1955
a(I1410771707
I24
I3
tp1956
a(I1410772726
I22
I3
tp1957
a(I1410773649
I14
I2
tp1958
a(I1410774584
I19
I3
tp1959
a(I1410775533
I13
I2
tp1960
a(I1410776467
I14
I2
tp1961
a(I1410777376
I18
I2
tp1962
a(I1410778299
I20
I3
tp1963
a(I1410779212
I15
I2
tp1964
a(I1410780137
I16
I2
tp1965
a(I1410781076
I15
I1
tp1966
a(I1410782060
I21
I3
tp1967
a(I1410782967
I13
I2
tp1968
a(I1410783990
I19
I3
tp1969
a(I1410784952
I29
I3
tp1970
a(I1410785899
I15
I2
tp1971
a(I1410786893
I14
I2
tp1972
a(I1410788025
I14
I2
tp1973
a(I1410789026
I14
I2
tp1974
a(I1410789949
I13
I3
tp1975
a(I1410790878
I13
I2
tp1976
a(I1410791807
I10
I1
tp1977
a(I1410792711
I7
I1
tp1978
a(I1410793689
I9
I2
tp1979
a(I1410794801
I8
I1
tp1980
a(I1410795730
I9
I1
tp1981
a(I1410796638
I11
I2
tp1982
a(I1410797553
I10
I3
tp1983
a(I1410798459
I9
I1
tp1984
a(I1410800060
I10
I2
tp1985
a(I1410801003
I7
I2
tp1986
a(I1410802016
I8
I1
tp1987
a(I1410803007
I17
I2
tp1988
a(I1410803919
I12
I2
tp1989
a(I1410804917
I11
I2
tp1990
a(I1410806455
I5
I2
tp1991
a(I1410807780
I17
I2
tp1992
a(I1410808747
I20
I3
tp1993
a(I1410810298
I4
I1
tp1994
a(I1410811286
I6
I2
tp1995
a(I1410812278
I10
I2
tp1996
a(I1410813200
I3
I1
tp1997
a(I1410814672
I1
I1
tp1998
a(I1410816102
I18
I4
tp1999
a(I1410817185
I17
I3
tp2000
a(I1410818101
I21
I3
tp2001
a(I1410819043
I2
I2
tp2002
a(I1410820211
I2
I2
tp2003
a(I1410823748
I25
I2
tp2004
a(I1410824669
I6
I1
tp2005
a(I1410825583
I6
I1
tp2006
a(I1410826947
I2
I1
tp2007
a(I1410828320
I3
I1
tp2008
a(I1410836098
I2
I1
tp2009
a(I1410839616
I1
I1
tp2010
a(I1410845950
I1
I1
tp2011
a(I1410847458
I1
I1
tp2012
a(I1410849199
I8
I2
tp2013
a(I1410853414
I8
I2
tp2014
a(I1410854437
I2
I1
tp2015
a(I1410855491
I3
I1
tp2016
a(I1410856488
I8
I1
tp2017
a(I1410857523
I8
I1
tp2018
a(I1410858507
I13
I2
tp2019
a(I1410859453
I23
I4
tp2020
a(I1410860394
I17
I3
tp2021
a(I1410861373
I13
I2
tp2022
a(I1410862340
I13
I2
tp2023
a(I1410863272
I22
I3
tp2024
a(I1410865185
I15
I2
tp2025
a(I1410866536
I4
I2
tp2026
a(I1410867485
I6
I2
tp2027
a(I1410868512
I4
I2
tp2028
a(I1410869539
I3
I2
tp2029
a(I1410870697
I2
I2
tp2030
a(I1410871778
I1
I1
tp2031
a(I1410872821
I4
I2
tp2032
a(I1410873731
I13
I2
tp2033
a(I1410874650
I17
I3
tp2034
a(I1410875567
I13
I1
tp2035
a(I1410876472
I8
I2
tp2036
a(I1410877429
I9
I2
tp2037
a(I1410878376
I9
I1
tp2038
a(I1410879402
I9
I2
tp2039
a(I1410880310
I23
I4
tp2040
a(I1410881242
I17
I2
tp2041
a(I1410882163
I15
I2
tp2042
a(I1410883172
I19
I2
tp2043
a(I1410884144
I21
I3
tp2044
a(I1410885050
I19
I2
tp2045
a(I1410886064
I10
I2
tp2046
a(I1410887138
I8
I2
tp2047
a(I1410888124
I15
I3
tp2048
a(I1410889166
I22
I4
tp2049
a(I1410890158
I20
I2
tp2050
a(I1410891176
I19
I2
tp2051
a(I1410892239
I34
I3
tp2052
a(I1410893355
I8
I1
tp2053
a(I1410894488
I14
I2
tp2054
a(I1410895449
I19
I2
tp2055
a(I1410896509
I8
I2
tp2056
a(I1410897493
I13
I2
tp2057
a(I1410898535
I6
I2
tp2058
a(I1410899887
I15
I2
tp2059
a(I1410903047
I6
I2
tp2060
a(I1410904020
I17
I3
tp2061
a(I1410905000
I12
I2
tp2062
a(I1410905931
I7
I1
tp2063
a(I1410906846
I1
I1
tp2064
a(I1410907783
I1
I1
tp2065
a(I1410909959
I1
I1
tp2066
a(I1410912460
I9
I3
tp2067
a(I1410913676
I2
I1
tp2068
a(I1410914622
I6
I2
tp2069
a(I1410919622
I1
I1
tp2070
a(I1410921708
I1
I1
tp2071
a(I1410924961
I1
I1
tp2072
a(I1410930428
I1
I1
tp2073
a(I1410931365
I1
I1
tp2074
a(I1410933068
I8
I2
tp2075
a(I1410937131
I7
I2
tp2076
a(I1410938261
I2
I1
tp2077
a(I1410939897
I2
I1
tp2078
a(I1410941883
I1
I1
tp2079
a(I1410944767
I10
I2
tp2080
a(I1410945687
I13
I2
tp2081
a(I1410946685
I26
I3
tp2082
a(I1410947591
I15
I2
tp2083
a(I1410948533
I12
I2
tp2084
a(I1410949588
I11
I2
tp2085
a(I1410950506
I15
I4
tp2086
a(I1410951525
I9
I2
tp2087
a(I1410952498
I19
I2
tp2088
a(I1410953401
I29
I2
tp2089
a(I1410954424
I16
I2
tp2090
a(I1410955384
I16
I2
tp2091
a(I1410956369
I16
I1
tp2092
a(I1410957329
I16
I2
tp2093
a(I1410958316
I15
I2
tp2094
a(I1410959329
I15
I2
tp2095
a(I1410960262
I16
I1
tp2096
a(I1410961263
I20
I2
tp2097
a(I1410962182
I21
I3
tp2098
a(I1410963105
I8
I1
tp2099
a(I1410964103
I17
I2
tp2100
a(I1410965078
I11
I1
tp2101
a(I1410966011
I7
I1
tp2102
a(I1410967006
I12
I1
tp2103
a(I1410967992
I12
I2
tp2104
a(I1410968917
I18
I3
tp2105
a(I1410971524
I23
I3
tp2106
a(I1410972520
I9
I1
tp2107
a(I1410973522
I17
I3
tp2108
a(I1410974437
I17
I2
tp2109
a(I1410975396
I12
I2
tp2110
a(I1410976308
I17
I3
tp2111
a(I1410977250
I10
I1
tp2112
a(I1410978259
I11
I1
tp2113
a(I1410979169
I13
I1
tp2114
a(I1410980157
I19
I2
tp2115
a(I1410981136
I8
I1
tp2116
a(I1410982077
I12
I2
tp2117
a(I1410983066
I13
I3
tp2118
a(I1410984016
I14
I3
tp2119
a(I1410984955
I16
I2
tp2120
a(I1410985897
I2
I1
tp2121
a(I1410987008
I5
I2
tp2122
a(I1410987923
I9
I4
tp2123
a(I1410989110
I10
I2
tp2124
a(I1410990213
I1
I1
tp2125
a(I1410992651
I6
I2
tp2126
a(I1410994111
I3
I1
tp2127
a(I1410995482
I23
I2
tp2128
a(I1410996421
I13
I1
tp2129
a(I1410997418
I5
I1
tp2130
a(I1410998433
I6
I1
tp2131
a(I1410999598
I4
I1
tp2132
a(I1411007981
I1
I1
tp2133
a(I1411012066
I2
I1
tp2134
a(I1411014092
I1
I1
tp2135
a(I1411018060
I1
I1
tp2136
a(I1411020565
I6
I1
tp2137
a(I1411021590
I2
I1
tp2138
a(I1411022756
I1
I1
tp2139
a(I1411023902
I1
I1
tp2140
a(I1411025368
I7
I1
tp2141
a(I1411027261
I3
I1
tp2142
a(I1411028929
I11
I1
tp2143
a(I1411029942
I11
I2
tp2144
a(I1411030866
I22
I3
tp2145
a(I1411031772
I19
I3
tp2146
a(I1411032785
I12
I2
tp2147
a(I1411033720
I21
I3
tp2148
a(I1411034714
I22
I3
tp2149
a(I1411035667
I4
I2
tp2150
a(I1411051091
I16
I3
tp2151
a(I1411052011
I19
I3
tp2152
a(I1411053046
I17
I3
tp2153
a(I1411053958
I17
I2
tp2154
a(I1411054879
I21
I3
tp2155
a(I1411057772
I17
I3
tp2156
a(I1411058694
I17
I2
tp2157
a(I1411059676
I13
I2
tp2158
a(I1411060714
I6
I2
tp2159
a(I1411061659
I2
I1
tp2160
a(I1411062897
I10
I2
tp2161
a(I1411063856
I20
I3
tp2162
a(I1411064762
I7
I1
tp2163
a(I1411065996
I15
I2
tp2164
a(I1411067012
I10
I2
tp2165
a(I1411068085
I10
I2
tp2166
a(I1411069058
I3
I2
tp2167
a(I1411070156
I15
I2
tp2168
a(I1411071338
I6
I2
tp2169
a(I1411072412
I5
I2
tp2170
a(I1411073890
I3
I2
tp2171
a(I1411074812
I1
I1
tp2172
a(I1411077557
I6
I1
tp2173
a(I1411078580
I4
I2
tp2174
a(I1411079586
I17
I2
tp2175
a(I1411080490
I10
I2
tp2176
a(I1411081400
I9
I2
tp2177
a(I1411082323
I18
I2
tp2178
a(I1411083306
I7
I2
tp2179
a(I1411084429
I4
I1
tp2180
a(I1411085438
I1
I1
tp2181
a(I1411086356
I2
I1
tp2182
a(I1411087674
I3
I1
tp2183
a(I1411088866
I3
I1
tp2184
a(I1411090612
I4
I1
tp2185
a(I1411092383
I2
I1
tp2186
a(I1411101675
I1
I1
tp2187
a(I1411102953
I1
I1
tp2188
a(I1411111049
I8
I2
tp2189
a(I1411111956
I3
I1
tp2190
a(I1411112867
I6
I1
tp2191
a(I1411113922
I3
I1
tp2192
a(I1411115739
I6
I1
tp2193
a(I1411116739
I5
I1
tp2194
a(I1411117671
I10
I1
tp2195
a(I1411118609
I25
I3
tp2196
a(I1411119530
I18
I3
tp2197
a(I1411120459
I25
I3
tp2198
a(I1411121418
I14
I2
tp2199
a(I1411122319
I12
I1
tp2200
a(I1411123245
I16
I2
tp2201
a(I1411124248
I16
I3
tp2202
a(I1411125150
I12
I2
tp2203
a(I1411126134
I12
I2
tp2204
a(I1411127055
I13
I1
tp2205
a(I1411127961
I8
I1
tp2206
a(I1411128949
I10
I1
tp2207
a(I1411129933
I11
I1
tp2208
a(I1411130893
I22
I3
tp2209
a(I1411131872
I13
I2
tp2210
a(I1411148325
I21
I3
tp2211
a(I1411149289
I12
I2
tp2212
a(I1411150327
I11
I1
tp2213
a(I1411151347
I3
I1
tp2214
a(I1411152416
I4
I1
tp2215
a(I1411153401
I15
I2
tp2216
a(I1411154360
I9
I2
tp2217
a(I1411155469
I12
I2
tp2218
a(I1411156737
I4
I2
tp2219
a(I1411157665
I11
I2
tp2220
a(I1411158609
I2
I1
tp2221
a(I1411159512
I1
I1
tp2222
a(I1411160757
I9
I2
tp2223
a(I1411161750
I16
I2
tp2224
a(I1411162791
I16
I2
tp2225
a(I1411163840
I5
I2
tp2226
a(I1411164920
I4
I1
tp2227
a(I1411165959
I17
I2
tp2228
a(I1411166870
I6
I2
tp2229
a(I1411167970
I23
I2
tp2230
a(I1411168874
I3
I1
tp2231
a(I1411171305
I1
I1
tp2232
a(I1411172623
I7
I1
tp2233
a(I1411173605
I6
I1
tp2234
a(I1411174552
I7
I2
tp2235
a(I1411175745
I3
I1
tp2236
a(I1411177089
I2
I1
tp2237
a(I1411186928
I1
I1
tp2238
a(I1411192242
I1
I1
tp2239
a(I1411194151
I8
I2
tp2240
a(I1411195569
I4
I1
tp2241
a(I1411197469
I2
I1
tp2242
a(I1411202112
I5
I2
tp2243
a(I1411206591
I15
I2
tp2244
a(I1411207603
I10
I1
tp2245
a(I1411208570
I14
I2
tp2246
a(I1411209512
I24
I3
tp2247
a(I1411210427
I17
I2
tp2248
a(I1411211409
I19
I2
tp2249
a(I1411212436
I18
I2
tp2250
a(I1411213354
I19
I2
tp2251
a(I1411214498
I17
I3
tp2252
a(I1411215418
I15
I3
tp2253
a(I1411216467
I14
I2
tp2254
a(I1411217416
I8
I2
tp2255
a(I1411218361
I7
I2
tp2256
a(I1411219366
I1
I1
tp2257
a(I1411221259
I1
I1
tp2258
a(I1411223174
I5
I2
tp2259
a(I1411224224
I18
I2
tp2260
a(I1411225134
I13
I1
tp2261
a(I1411226151
I10
I1
tp2262
a(I1411227090
I5
I1
tp2263
a(I1411228053
I4
I1
tp2264
a(I1411229066
I22
I2
tp2265
a(I1411230078
I13
I1
tp2266
a(I1411231015
I12
I1
tp2267
a(I1411231990
I9
I1
tp2268
a(I1411232892
I12
I1
tp2269
a(I1411233911
I13
I1
tp2270
a(I1411234824
I16
I2
tp2271
a(I1411235830
I13
I2
tp2272
a(I1411236801
I11
I2
tp2273
a(I1411237706
I4
I2
tp2274
a(I1411238803
I5
I2
tp2275
a(I1411239997
I2
I1
tp2276
a(I1411241072
I11
I2
tp2277
a(I1411242262
I19
I2
tp2278
a(I1411243251
I5
I2
tp2279
a(I1411244230
I5
I1
tp2280
a(I1411245252
I7
I2
tp2281
a(I1411246866
I8
I2
tp2282
a(I1411248012
I4
I2
tp2283
a(I1411248934
I5
I1
tp2284
a(I1411250049
I5
I2
tp2285
a(I1411251858
I1
I1
tp2286
a(I1411254893
I2
I1
tp2287
a(I1411258143
I20
I3
tp2288
a(I1411259110
I12
I2
tp2289
a(I1411260143
I8
I1
tp2290
a(I1411263095
I1
I1
tp2291
a(I1411268183
I1
I1
tp2292
a(I1411269445
I1
I1
tp2293
a(I1411273323
I1
I1
tp2294
a(I1411276100
I1
I1
tp2295
a(I1411282249
I8
I1
tp2296
a(I1411283756
I3
I1
tp2297
a(I1411284777
I5
I1
tp2298
a(I1411285844
I2
I1
tp2299
a(I1411287225
I2
I1
tp2300
a(I1411288854
I11
I2
tp2301
a(I1411289774
I9
I1
tp2302
a(I1411290793
I6
I1
tp2303
a(I1411291752
I5
I1
tp2304
a(I1411293722
I7
I1
tp2305
a(I1411294675
I12
I1
tp2306
a(I1411295667
I15
I3
tp2307
a(I1411296656
I11
I2
tp2308
a(I1411297602
I17
I1
tp2309
a(I1411298515
I10
I1
tp2310
a(I1411299464
I19
I3
tp2311
a(I1411300378
I10
I1
tp2312
a(I1411301359
I16
I3
tp2313
a(I1411302299
I14
I2
tp2314
a(I1411303276
I14
I1
tp2315
a(I1411304205
I14
I2
tp2316
a(I1411305131
I15
I3
tp2317
a(I1411306077
I13
I2
tp2318
a(I1411307057
I13
I3
tp2319
a(I1411307999
I9
I2
tp2320
a(I1411308916
I13
I2
tp2321
a(I1411309852
I16
I2
tp2322
a(I1411310765
I10
I1
tp2323
a(I1411311673
I10
I1
tp2324
a(I1411312636
I13
I1
tp2325
a(I1411313541
I11
I1
tp2326
a(I1411314554
I8
I1
tp2327
a(I1411315559
I12
I2
tp2328
a(I1411316553
I15
I1
tp2329
a(I1411317486
I12
I2
tp2330
a(I1411318402
I14
I2
tp2331
a(I1411319305
I13
I2
tp2332
a(I1411320208
I10
I2
tp2333
a(I1411321214
I13
I2
tp2334
a(I1411322188
I15
I1
tp2335
a(I1411323128
I20
I2
tp2336
a(I1411324043
I14
I2
tp2337
a(I1411324973
I10
I3
tp2338
a(I1411325908
I11
I2
tp2339
a(I1411326882
I10
I2
tp2340
a(I1411327799
I7
I2
tp2341
a(I1411329372
I2
I2
tp2342
a(I1411330593
I3
I1
tp2343
a(I1411331496
I13
I2
tp2344
a(I1411332515
I2
I2
tp2345
a(I1411333511
I3
I1
tp2346
a(I1411334553
I2
I2
tp2347
a(I1411336561
I9
I1
tp2348
a(I1411337674
I7
I2
tp2349
a(I1411339680
I1
I1
tp2350
a(I1411340736
I4
I2
tp2351
a(I1411341661
I4
I1
tp2352
a(I1411342640
I19
I2
tp2353
a(I1411343614
I9
I1
tp2354
a(I1411346158
I2
I1
tp2355
a(I1411353023
I2
I1
tp2356
a(I1411354600
I1
I1
tp2357
a(I1411356108
I1
I1
tp2358
a(I1411359953
I1
I1
tp2359
a(I1411364569
I7
I1
tp2360
a(I1411366133
I3
I1
tp2361
a(I1411367378
I1
I1
tp2362
a(I1411368552
I3
I1
tp2363
a(I1411369574
I3
I1
tp2364
a(I1411370597
I4
I1
tp2365
a(I1411372421
I5
I1
tp2366
a(I1411373522
I6
I1
tp2367
a(I1411376069
I9
I1
tp2368
a(I1411377047
I8
I1
tp2369
a(I1411378023
I18
I3
tp2370
a(I1411379038
I15
I3
tp2371
a(I1411379975
I11
I2
tp2372
a(I1411380906
I8
I2
tp2373
a(I1411381819
I11
I1
tp2374
a(I1411382813
I15
I2
tp2375
a(I1411383836
I4
I2
tp2376
a(I1411384852
I15
I2
tp2377
a(I1411385805
I9
I3
tp2378
a(I1411386789
I12
I2
tp2379
a(I1411388239
I9
I2
tp2380
a(I1411389264
I14
I1
tp2381
a(I1411390251
I10
I2
tp2382
a(I1411391191
I22
I3
tp2383
a(I1411392186
I16
I1
tp2384
a(I1411393142
I13
I2
tp2385
a(I1411394059
I13
I2
tp2386
a(I1411394966
I11
I1
tp2387
a(I1411395871
I15
I2
tp2388
a(I1411396829
I11
I2
tp2389
a(I1411401962
I14
I2
tp2390
a(I1411402870
I15
I3
tp2391
a(I1411403780
I23
I4
tp2392
a(I1411404712
I11
I2
tp2393
a(I1411405628
I12
I1
tp2394
a(I1411406538
I12
I1
tp2395
a(I1411407535
I10
I2
tp2396
a(I1411408503
I12
I2
tp2397
a(I1411409421
I11
I1
tp2398
a(I1411410338
I14
I1
tp2399
a(I1411411268
I19
I3
tp2400
a(I1411412212
I12
I3
tp2401
a(I1411413755
I6
I2
tp2402
a(I1411414979
I7
I2
tp2403
a(I1411415941
I12
I2
tp2404
a(I1411417198
I1
I1
tp2405
a(I1411418329
I6
I2
tp2406
a(I1411419290
I16
I3
tp2407
a(I1411420317
I4
I2
tp2408
a(I1411421397
I2
I2
tp2409
a(I1411423321
I6
I1
tp2410
a(I1411424387
I5
I1
tp2411
a(I1411425773
I6
I1
tp2412
a(I1411426723
I23
I2
tp2413
a(I1411427703
I11
I2
tp2414
a(I1411428611
I10
I2
tp2415
a(I1411429577
I5
I2
tp2416
a(I1411431741
I1
I1
tp2417
a(I1411436116
I2
I1
tp2418
a(I1411437933
I2
I1
tp2419
a(I1411443181
I1
I1
tp2420
a(I1411450788
I6
I2
tp2421
a(I1411451749
I8
I1
tp2422
a(I1411453037
I4
I1
tp2423
a(I1411453962
I2
I1
tp2424
a(I1411455584
I5
I2
tp2425
a(I1411456540
I3
I1
tp2426
a(I1411457652
I4
I1
tp2427
a(I1411458632
I4
I1
tp2428
a(I1411459561
I2
I1
tp2429
a(I1411460505
I4
I1
tp2430
a(I1411461486
I11
I1
tp2431
a(I1411462440
I8
I1
tp2432
a(I1411463422
I19
I3
tp2433
a(I1411464446
I20
I3
tp2434
a(I1411465473
I15
I2
tp2435
a(I1411466414
I17
I3
tp2436
a(I1411467361
I7
I3
tp2437
a(I1411483092
I20
I2
tp2438
a(I1411484085
I10
I1
tp2439
a(I1411485018
I18
I3
tp2440
a(I1411485996
I4
I2
tp2441
a(I1411486933
I3
I2
tp2442
a(I1411488324
I2
I1
tp2443
a(I1411489582
I14
I3
tp2444
a(I1411491079
I8
I2
tp2445
a(I1411491990
I12
I2
tp2446
a(I1411492984
I12
I2
tp2447
a(I1411493947
I19
I2
tp2448
a(I1411494934
I14
I3
tp2449
a(I1411495941
I14
I3
tp2450
a(I1411496937
I13
I4
tp2451
a(I1411497880
I6
I2
tp2452
a(I1411498953
I2
I2
tp2453
a(I1411499868
I3
I1
tp2454
a(I1411501229
I9
I2
tp2455
a(I1411502256
I16
I3
tp2456
a(I1411503234
I18
I3
tp2457
a(I1411504241
I14
I2
tp2458
a(I1411505394
I6
I2
tp2459
a(I1411506296
I11
I2
tp2460
a(I1411507442
I3
I2
tp2461
a(I1411508415
I2
I1
tp2462
a(I1411509562
I2
I1
tp2463
a(I1411510920
I12
I2
tp2464
a(I1411511846
I7
I2
tp2465
a(I1411513064
I9
I2
tp2466
a(I1411513969
I18
I3
tp2467
a(I1411514913
I8
I1
tp2468
a(I1411515943
I12
I2
tp2469
a(I1411516922
I13
I2
tp2470
a(I1411517860
I5
I1
tp2471
a(I1411519911
I1
I1
tp2472
a(I1411531606
I1
I1
tp2473
a(I1411535748
I1
I1
tp2474
a(I1411540505
I7
I2
tp2475
a(I1411541699
I1
I1
tp2476
a(I1411543297
I8
I2
tp2477
a(I1411544473
I2
I1
tp2478
a(I1411547748
I1
I1
tp2479
a(I1411549849
I9
I2
tp2480
a(I1411550813
I12
I3
tp2481
a(I1411551773
I14
I3
tp2482
a(I1411552774
I16
I3
tp2483
a(I1411553765
I13
I2
tp2484
a(I1411554765
I14
I2
tp2485
a(I1411555800
I7
I1
tp2486
a(I1411556709
I7
I1
tp2487
a(I1411557716
I8
I1
tp2488
a(I1411558737
I13
I3
tp2489
a(I1411559746
I8
I2
tp2490
a(I1411560670
I16
I1
tp2491
a(I1411561672
I22
I3
tp2492
a(I1411562601
I10
I2
tp2493
a(I1411564765
I12
I3
tp2494
a(I1411565687
I8
I1
tp2495
a(I1411566654
I12
I2
tp2496
a(I1411567660
I15
I2
tp2497
a(I1411568626
I10
I1
tp2498
a(I1411569680
I7
I1
tp2499
a(I1411570629
I15
I2
tp2500
a(I1411571637
I8
I1
tp2501
a(I1411572610
I8
I1
tp2502
a(I1411573590
I8
I1
tp2503
a(I1411574561
I13
I3
tp2504
a(I1411575470
I8
I1
tp2505
a(I1411576449
I15
I3
tp2506
a(I1411577419
I13
I3
tp2507
a(I1411578346
I16
I2
tp2508
a(I1411579361
I11
I2
tp2509
a(I1411580270
I27
I3
tp2510
a(I1411581209
I23
I3
tp2511
a(I1411582164
I22
I3
tp2512
a(I1411583165
I19
I3
tp2513
a(I1411584086
I18
I3
tp2514
a(I1411585076
I24
I4
tp2515
a(I1411586060
I15
I1
tp2516
a(I1411586973
I32
I2
tp2517
a(I1411587874
I28
I2
tp2518
a(I1411588804
I33
I2
tp2519
a(I1411589725
I21
I1
tp2520
a(I1411590648
I19
I1
tp2521
a(I1411591559
I27
I2
tp2522
a(I1411592463
I31
I2
tp2523
a(I1411593370
I24
I3
tp2524
a(I1411594273
I17
I3
tp2525
a(I1411595220
I21
I2
tp2526
a(I1411596145
I14
I1
tp2527
a(I1411597067
I16
I2
tp2528
a(I1411598002
I17
I3
tp2529
a(I1411598956
I17
I2
tp2530
a(I1411599939
I18
I3
tp2531
a(I1411600908
I23
I2
tp2532
a(I1411601890
I11
I2
tp2533
a(I1411602807
I6
I1
tp2534
a(I1411605245
I1
I1
tp2535
a(I1411607934
I1
I1
tp2536
a(I1411608990
I1
I1
tp2537
a(I1411614072
I1
I1
tp2538
a(I1411620160
I2
I1
tp2539
a(I1411621347
I1
I1
tp2540
a(I1411625264
I2
I1
tp2541
a(I1411626213
I1
I1
tp2542
a(I1411627900
I7
I2
tp2543
a(I1411629227
I4
I1
tp2544
a(I1411630221
I4
I1
tp2545
a(I1411631204
I5
I2
tp2546
a(I1411632180
I4
I1
tp2547
a(I1411633213
I10
I1
tp2548
a(I1411634142
I9
I1
tp2549
a(I1411635115
I14
I2
tp2550
a(I1411636025
I18
I3
tp2551
a(I1411637048
I16
I3
tp2552
a(I1411637960
I13
I2
tp2553
a(I1411639058
I20
I2
tp2554
a(I1411639974
I19
I3
tp2555
a(I1411640993
I10
I2
tp2556
a(I1411641963
I7
I1
tp2557
a(I1411642926
I8
I1
tp2558
a(I1411643906
I9
I1
tp2559
a(I1411644896
I8
I1
tp2560
a(I1411645870
I8
I1
tp2561
a(I1411646786
I14
I1
tp2562
a(I1411647692
I11
I2
tp2563
a(I1411648637
I10
I2
tp2564
a(I1411649619
I11
I2
tp2565
a(I1411650605
I9
I1
tp2566
a(I1411651599
I10
I2
tp2567
a(I1411652596
I19
I2
tp2568
a(I1411653542
I11
I2
tp2569
a(I1411654470
I5
I2
tp2570
a(I1411655898
I3
I2
tp2571
a(I1411657089
I5
I2
tp2572
a(I1411658255
I10
I1
tp2573
a(I1411659224
I18
I2
tp2574
a(I1411660267
I6
I2
tp2575
a(I1411661192
I7
I2
tp2576
a(I1411662855
I15
I3
tp2577
a(I1411663820
I22
I3
tp2578
a(I1411664724
I12
I2
tp2579
a(I1411665627
I4
I2
tp2580
a(I1411666629
I3
I1
tp2581
a(I1411667762
I5
I2
tp2582
a(I1411668685
I15
I2
tp2583
a(I1411669623
I21
I3
tp2584
a(I1411670574
I10
I2
tp2585
a(I1411671520
I4
I1
tp2586
a(I1411673934
I13
I2
tp2587
a(I1411674982
I17
I2
tp2588
a(I1411676653
I4
I2
tp2589
a(I1411678554
I2
I1
tp2590
a(I1411680558
I25
I2
tp2591
a(I1411681462
I5
I1
tp2592
a(I1411682467
I6
I1
tp2593
a(I1411683705
I1
I1
tp2594
a(I1411684646
I2
I1
tp2595
a(I1411685664
I4
I1
tp2596
a(I1411686668
I6
I1
tp2597
a(I1411687685
I14
I2
tp2598
a(I1411688739
I9
I1
tp2599
a(I1411691030
I4
I1
tp2600
a(I1411692001
I2
I1
tp2601
a(I1411693272
I5
I2
tp2602
a(I1411700563
I1
I1
tp2603
a(I1411704031
I1
I1
tp2604
a(I1411709192
I1
I1
tp2605
a(I1411713316
I1
I1
tp2606
a(I1411715487
I8
I2
tp2607
a(I1411718453
I1
I1
tp2608
a(I1411719630
I2
I1
tp2609
a(I1411720586
I10
I1
tp2610
a(I1411721531
I11
I1
tp2611
a(I1411722463
I18
I3
tp2612
a(I1411723437
I22
I3
tp2613
a(I1411724347
I13
I3
tp2614
a(I1411725298
I18
I3
tp2615
a(I1411726206
I15
I3
tp2616
a(I1411741880
I15
I2
tp2617
a(I1411742815
I18
I3
tp2618
a(I1411743734
I12
I2
tp2619
a(I1411744679
I12
I1
tp2620
a(I1411745611
I5
I1
tp2621
a(I1411746534
I3
I1
tp2622
a(I1411747559
I19
I2
tp2623
a(I1411748527
I14
I3
tp2624
a(I1411749488
I23
I2
tp2625
a(I1411750430
I10
I2
tp2626
a(I1411751860
I5
I2
tp2627
a(I1411752912
I5
I1
tp2628
a(I1411755451
I19
I2
tp2629
a(I1411756374
I12
I1
tp2630
a(I1411757392
I14
I2
tp2631
a(I1411758373
I20
I3
tp2632
a(I1411759341
I12
I2
tp2633
a(I1411760244
I25
I3
tp2634
a(I1411761160
I18
I3
tp2635
a(I1411762076
I12
I3
tp2636
a(I1411763042
I14
I2
tp2637
a(I1411764072
I5
I1
tp2638
a(I1411764987
I6
I2
tp2639
a(I1411766921
I8
I2
tp2640
a(I1411768015
I4
I2
tp2641
a(I1411771712
I7
I2
tp2642
a(I1411773131
I10
I1
tp2643
a(I1411774067
I23
I2
tp2644
a(I1411774977
I11
I2
tp2645
a(I1411775910
I4
I1
tp2646
a(I1411777805
I1
I1
tp2647
a(I1411778915
I4
I1
tp2648
a(I1411779994
I4
I1
tp2649
a(I1411781105
I6
I2
tp2650
a(I1411782040
I1
I1
tp2651
a(I1411786531
I1
I1
tp2652
a(I1411787531
I1
I1
tp2653
a(I1411792725
I1
I1
tp2654
a(I1411794529
I1
I1
tp2655
a(I1411795906
I1
I1
tp2656
a(I1411801420
I8
I1
tp2657
a(I1411802373
I1
I1
tp2658
a(I1411803951
I2
I1
tp2659
a(I1411807129
I5
I1
tp2660
a(I1411808125
I16
I2
tp2661
a(I1411809177
I8
I1
tp2662
a(I1411810112
I11
I2
tp2663
a(I1411811014
I9
I2
tp2664
a(I1411812641
I10
I2
tp2665
a(I1411813552
I16
I3
tp2666
a(I1411814463
I17
I2
tp2667
a(I1411815408
I10
I2
tp2668
a(I1411816398
I3
I1
tp2669
a(I1411817389
I9
I1
tp2670
a(I1411818381
I25
I2
tp2671
a(I1411819304
I21
I2
tp2672
a(I1411820303
I12
I2
tp2673
a(I1411821226
I11
I1
tp2674
a(I1411822164
I11
I1
tp2675
a(I1411823124
I10
I1
tp2676
a(I1411824069
I12
I3
tp2677
a(I1411825122
I6
I1
tp2678
a(I1411826151
I4
I1
tp2679
a(I1411827149
I10
I2
tp2680
a(I1411828967
I13
I2
tp2681
a(I1411830155
I4
I2
tp2682
a(I1411831099
I9
I2
tp2683
a(I1411832100
I15
I2
tp2684
a(I1411833080
I13
I2
tp2685
a(I1411834045
I5
I2
tp2686
a(I1411835274
I5
I2
tp2687
a(I1411836544
I3
I2
tp2688
a(I1411837627
I3
I2
tp2689
a(I1411839243
I16
I2
tp2690
a(I1411840219
I22
I3
tp2691
a(I1411843854
I17
I2
tp2692
a(I1411845347
I5
I2
tp2693
a(I1411846255
I3
I2
tp2694
a(I1411849445
I25
I3
tp2695
a(I1411850347
I4
I1
tp2696
a(I1411851853
I3
I2
tp2697
a(I1411853357
I11
I2
tp2698
a(I1411856748
I12
I2
tp2699
a(I1411857832
I6
I1
tp2700
a(I1411858735
I6
I2
tp2701
a(I1411860085
I15
I2
tp2702
a(I1411861233
I3
I1
tp2703
a(I1411862370
I4
I1
tp2704
a(I1411863599
I3
I1
tp2705
a(I1411866810
I8
I1
tp2706
a(I1411868442
I2
I1
tp2707
a(I1411870124
I1
I1
tp2708
a(I1411871051
I1
I1
tp2709
a(I1411873756
I5
I2
tp2710
a(I1411876642
I1
I1
tp2711
a(I1411883660
I2
I1
tp2712
a(I1411889842
I4
I2
tp2713
a(I1411890767
I5
I1
tp2714
a(I1411893026
I7
I2
tp2715
a(I1411893939
I9
I1
tp2716
a(I1411894907
I5
I1
tp2717
a(I1411895824
I1
I1
tp2718
a(I1411898258
I7
I1
tp2719
a(I1411899171
I18
I2
tp2720
a(I1411900107
I17
I3
tp2721
a(I1411901058
I12
I1
tp2722
a(I1411901982
I15
I2
tp2723
a(I1411902970
I17
I2
tp2724
a(I1411903872
I15
I3
tp2725
a(I1411904778
I9
I2
tp2726
a(I1411905867
I9
I2
tp2727
a(I1411906838
I10
I2
tp2728
a(I1411908008
I9
I2
tp2729
a(I1411908939
I8
I1
tp2730
a(I1411909855
I10
I2
tp2731
a(I1411910775
I16
I3
tp2732
a(I1411911750
I12
I1
tp2733
a(I1411912745
I13
I2
tp2734
a(I1411913958
I13
I2
tp2735
a(I1411914941
I6
I2
tp2736
a(I1411916017
I4
I2
tp2737
a(I1411917363
I8
I2
tp2738
a(I1411918290
I6
I2
tp2739
a(I1411920452
I4
I1
tp2740
a(I1411923391
I3
I1
tp2741
a(I1411925045
I22
I2
tp2742
a(I1411926011
I15
I2
tp2743
a(I1411926920
I5
I2
tp2744
a(I1411928781
I1
I1
tp2745
a(I1411931161
I9
I2
tp2746
a(I1411932070
I7
I2
tp2747
a(I1411933073
I12
I2
tp2748
a(I1411934398
I3
I2
tp2749
a(I1411935454
I10
I2
tp2750
a(I1411936738
I2
I2
tp2751
a(I1411938446
I13
I2
tp2752
a(I1411939400
I1
I1
tp2753
a(I1411941050
I9
I2
tp2754
a(I1411942570
I2
I1
tp2755
a(I1411944628
I1
I1
tp2756
a(I1411945824
I2
I1
tp2757
a(I1411947245
I20
I2
tp2758
a(I1411948213
I9
I1
tp2759
a(I1411949296
I9
I1
tp2760
a(I1411950242
I2
I1
tp2761
a(I1411951524
I1
I1
tp2762
a(I1411952647
I2
I1
tp2763
a(I1411956141
I1
I1
tp2764
a(I1411959398
I2
I1
tp2765
a(I1411960365
I1
I1
tp2766
a(I1411963163
I1
I1
tp2767
a(I1411965419
I1
I1
tp2768
a(I1411966876
I1
I1
tp2769
a(I1411971099
I5
I1
tp2770
a(I1411972044
I9
I1
tp2771
a(I1411974591
I4
I1
tp2772
a(I1411975602
I5
I1
tp2773
a(I1411977587
I1
I1
tp2774
a(I1411978858
I3
I1
tp2775
a(I1411979969
I2
I1
tp2776
a(I1411981069
I2
I1
tp2777
a(I1411982133
I9
I1
tp2778
a(I1411983095
I12
I1
tp2779
a(I1411984007
I16
I2
tp2780
a(I1411984956
I23
I3
tp2781
a(I1411985969
I14
I1
tp2782
a(I1411986870
I10
I1
tp2783
a(I1411987928
I26
I3
tp2784
a(I1411988935
I13
I2
tp2785
a(I1411989928
I15
I2
tp2786
a(I1411990847
I8
I2
tp2787
a(I1411993362
I2
I2
tp2788
a(I1411994313
I13
I1
tp2789
a(I1411995234
I16
I2
tp2790
a(I1411996240
I18
I2
tp2791
a(I1411997185
I11
I1
tp2792
a(I1411998229
I11
I1
tp2793
a(I1411999141
I10
I1
tp2794
a(I1412000049
I10
I2
tp2795
a(I1412001489
I7
I2
tp2796
a(I1412002435
I20
I2
tp2797
a(I1412003437
I8
I1
tp2798
a(I1412004443
I11
I2
tp2799
a(I1412005348
I14
I2
tp2800
a(I1412006303
I16
I2
tp2801
a(I1412007235
I2
I2
tp2802
a(I1412008490
I2
I2
tp2803
a(I1412013038
I7
I2
tp2804
a(I1412014075
I14
I2
tp2805
a(I1412015104
I17
I2
tp2806
a(I1412016011
I17
I2
tp2807
a(I1412016912
I10
I3
tp2808
a(I1412017919
I3
I2
tp2809
a(I1412018879
I1
I1
tp2810
a(I1412020049
I7
I2
tp2811
a(I1412020980
I12
I2
tp2812
a(I1412022503
I6
I2
tp2813
a(I1412024312
I11
I2
tp2814
a(I1412026168
I3
I1
tp2815
a(I1412030213
I16
I2
tp2816
a(I1412031189
I17
I2
tp2817
a(I1412032156
I9
I1
tp2818
a(I1412037268
I1
I1
tp2819
a(I1412038395
I6
I1
tp2820
a(I1412039395
I7
I1
tp2821
a(I1412040309
I4
I1
tp2822
a(I1412041395
I2
I1
tp2823
a(I1412043067
I3
I1
tp2824
a(I1412048703
I1
I1
tp2825
a(I1412055856
I7
I1
tp2826
a(I1412057597
I1
I1
tp2827
a(I1412061254
I8
I1
tp2828
a(I1412062266
I3
I1
tp2829
a(I1412063261
I3
I1
tp2830
a(I1412064181
I3
I1
tp2831
a(I1412065433
I7
I1
tp2832
a(I1412066334
I10
I1
tp2833
a(I1412067325
I8
I1
tp2834
a(I1412068230
I17
I2
tp2835
a(I1412069191
I18
I3
tp2836
a(I1412070161
I10
I2
tp2837
a(I1412071064
I17
I3
tp2838
a(I1412071976
I11
I2
tp2839
a(I1412072952
I12
I2
tp2840
a(I1412074054
I14
I2
tp2841
a(I1412075952
I4
I2
tp2842
a(I1412076993
I1
I1
tp2843
a(I1412077969
I3
I2
tp2844
a(I1412079330
I1
I1
tp2845
a(I1412081195
I8
I2
tp2846
a(I1412082162
I7
I1
tp2847
a(I1412083067
I16
I3
tp2848
a(I1412084047
I21
I3
tp2849
a(I1412084949
I11
I1
tp2850
a(I1412085884
I13
I1
tp2851
a(I1412086855
I12
I2
tp2852
a(I1412088797
I2
I1
tp2853
a(I1412090578
I13
I1
tp2854
a(I1412092607
I13
I2
tp2855
a(I1412093613
I7
I2
tp2856
a(I1412098688
I13
I1
tp2857
a(I1412099646
I16
I2
tp2858
a(I1412100602
I10
I3
tp2859
a(I1412101698
I6
I2
tp2860
a(I1412103357
I2
I1
tp2861
a(I1412104275
I2
I1
tp2862
a(I1412105309
I5
I2
tp2863
a(I1412106342
I2
I1
tp2864
a(I1412107336
I15
I3
tp2865
a(I1412108250
I5
I2
tp2866
a(I1412109694
I3
I2
tp2867
a(I1412110739
I2
I1
tp2868
a(I1412111752
I10
I2
tp2869
a(I1412112705
I3
I1
tp2870
a(I1412115312
I7
I1
tp2871
a(I1412116376
I1
I1
tp2872
a(I1412117307
I5
I2
tp2873
a(I1412118309
I7
I2
tp2874
a(I1412119478
I20
I2
tp2875
a(I1412120463
I13
I2
tp2876
a(I1412121574
I1
I1
tp2877
a(I1412122512
I1
I1
tp2878
a(I1412129674
I2
I1
tp2879
a(I1412131662
I2
I1
tp2880
a(I1412140505
I1
I1
tp2881
a(I1412142553
I1
I1
tp2882
a(I1412143639
I7
I2
tp2883
a(I1412144847
I4
I1
tp2884
a(I1412146606
I3
I1
tp2885
a(I1412150042
I2
I1
tp2886
a(I1412151374
I4
I1
tp2887
a(I1412152900
I9
I1
tp2888
a(I1412153910
I8
I1
tp2889
a(I1412154883
I11
I1
tp2890
a(I1412155883
I22
I2
tp2891
a(I1412156843
I16
I3
tp2892
a(I1412157848
I12
I2
tp2893
a(I1412159057
I16
I3
tp2894
a(I1412159970
I14
I3
tp2895
a(I1412160897
I12
I2
tp2896
a(I1412161851
I20
I3
tp2897
a(I1412162931
I14
I2
tp2898
a(I1412163845
I14
I2
tp2899
a(I1412164816
I13
I3
tp2900
a(I1412165740
I15
I2
tp2901
a(I1412166742
I15
I2
tp2902
a(I1412167721
I11
I1
tp2903
a(I1412168710
I14
I3
tp2904
a(I1412169617
I19
I3
tp2905
a(I1412170557
I12
I2
tp2906
a(I1412171522
I11
I2
tp2907
a(I1412172534
I9
I2
tp2908
a(I1412173487
I10
I1
tp2909
a(I1412174447
I10
I1
tp2910
a(I1412175445
I13
I2
tp2911
a(I1412176352
I23
I2
tp2912
a(I1412177315
I14
I2
tp2913
a(I1412178350
I12
I2
tp2914
a(I1412179361
I15
I2
tp2915
a(I1412180383
I14
I2
tp2916
a(I1412181343
I12
I2
tp2917
a(I1412182355
I13
I2
tp2918
a(I1412183263
I12
I2
tp2919
a(I1412184189
I16
I2
tp2920
a(I1412185129
I14
I2
tp2921
a(I1412186071
I15
I2
tp2922
a(I1412187007
I20
I2
tp2923
a(I1412187911
I9
I2
tp2924
a(I1412189240
I4
I2
tp2925
a(I1412190457
I3
I1
tp2926
a(I1412191689
I20
I3
tp2927
a(I1412192634
I6
I2
tp2928
a(I1412193668
I25
I2
tp2929
a(I1412196155
I5
I2
tp2930
a(I1412197166
I3
I2
tp2931
a(I1412200218
I5
I2
tp2932
a(I1412201290
I10
I2
tp2933
a(I1412202217
I7
I2
tp2934
a(I1412203290
I10
I2
tp2935
a(I1412204305
I19
I3
tp2936
a(I1412205248
I14
I2
tp2937
a(I1412206228
I12
I2
tp2938
a(I1412207221
I5
I1
tp2939
a(I1412208326
I1
I1
tp2940
a(I1412210814
I2
I1
tp2941
a(I1412219082
I1
I1
tp2942
a(I1412221504
I6
I1
tp2943
a(I1412224691
I1
I1
tp2944
a(I1412230627
I1
I1
tp2945
a(I1412231769
I7
I2
tp2946
a(I1412233165
I3
I1
tp2947
a(I1412234386
I3
I1
tp2948
a(I1412235505
I3
I1
tp2949
a(I1412236608
I3
I1
tp2950
a(I1412237632
I2
I1
tp2951
a(I1412238717
I10
I1
tp2952
a(I1412239727
I10
I1
tp2953
a(I1412240732
I12
I2
tp2954
a(I1412241673
I19
I4
tp2955
a(I1412242664
I24
I4
tp2956
a(I1412243618
I23
I3
tp2957
a(I1412244612
I22
I3
tp2958
a(I1412263964
I20
I2
tp2959
a(I1412264995
I12
I1
tp2960
a(I1412265928
I16
I2
tp2961
a(I1412266888
I11
I2
tp2962
a(I1412267948
I9
I2
tp2963
a(I1412269233
I20
I2
tp2964
a(I1412270189
I7
I2
tp2965
a(I1412271868
I7
I2
tp2966
a(I1412272774
I14
I3
tp2967
a(I1412273716
I5
I1
tp2968
a(I1412274825
I4
I1
tp2969
a(I1412276502
I9
I2
tp2970
a(I1412277406
I13
I3
tp2971
a(I1412278408
I15
I2
tp2972
a(I1412279320
I14
I3
tp2973
a(I1412280241
I5
I2
tp2974
a(I1412281287
I12
I2
tp2975
a(I1412282215
I2
I2
tp2976
a(I1412283745
I1
I1
tp2977
a(I1412285531
I6
I2
tp2978
a(I1412286764
I13
I2
tp2979
a(I1412288030
I8
I2
tp2980
a(I1412289059
I7
I2
tp2981
a(I1412290894
I20
I3
tp2982
a(I1412291848
I14
I2
tp2983
a(I1412292767
I4
I1
tp2984
a(I1412294886
I3
I1
tp2985
a(I1412295828
I6
I1
tp2986
a(I1412296743
I6
I1
tp2987
a(I1412298623
I2
I1
tp2988
a(I1412304699
I1
I1
tp2989
a(I1412306511
I1
I1
tp2990
a(I1412313293
I2
I1
tp2991
a(I1412315314
I1
I1
tp2992
a(I1412317971
I5
I2
tp2993
a(I1412318912
I7
I1
tp2994
a(I1412319944
I1
I1
tp2995
a(I1412321515
I2
I1
tp2996
a(I1412322875
I4
I1
tp2997
a(I1412323951
I4
I1
tp2998
a(I1412325065
I5
I1
tp2999
a(I1412326116
I11
I2
tp3000
a(I1412327117
I11
I2
tp3001
a(I1412328126
I25
I4
tp3002
a(I1412329035
I15
I3
tp3003
a(I1412330029
I15
I3
tp3004
a(I1412330960
I9
I1
tp3005
a(I1412331920
I12
I2
tp3006
a(I1412332857
I18
I3
tp3007
a(I1412333908
I2
I1
tp3008
a(I1412334853
I14
I2
tp3009
a(I1412335820
I13
I3
tp3010
a(I1412336755
I15
I3
tp3011
a(I1412339109
I10
I2
tp3012
a(I1412340412
I6
I2
tp3013
a(I1412341333
I10
I2
tp3014
a(I1412342302
I12
I1
tp3015
a(I1412343238
I14
I2
tp3016
a(I1412344194
I14
I1
tp3017
a(I1412345112
I13
I2
tp3018
a(I1412346043
I13
I1
tp3019
a(I1412346985
I6
I2
tp3020
a(I1412348946
I17
I3
tp3021
a(I1412349847
I4
I2
tp3022
a(I1412351078
I2
I2
tp3023
a(I1412352314
I2
I2
tp3024
a(I1412355102
I2
I2
tp3025
a(I1412356248
I13
I2
tp3026
a(I1412357230
I18
I2
tp3027
a(I1412358214
I12
I2
tp3028
a(I1412359215
I13
I2
tp3029
a(I1412360287
I7
I2
tp3030
a(I1412362337
I9
I2
tp3031
a(I1412363289
I11
I2
tp3032
a(I1412364198
I21
I3
tp3033
a(I1412365267
I6
I2
tp3034
a(I1412366260
I7
I2
tp3035
a(I1412367187
I14
I2
tp3036
a(I1412368489
I7
I2
tp3037
a(I1412369959
I5
I1
tp3038
a(I1412371676
I6
I1
tp3039
a(I1412372603
I8
I2
tp3040
a(I1412373596
I7
I2
tp3041
a(I1412374565
I8
I2
tp3042
a(I1412376088
I10
I2
tp3043
a(I1412377002
I3
I2
tp3044
a(I1412378156
I11
I2
tp3045
a(I1412379339
I7
I1
tp3046
a(I1412380250
I21
I3
tp3047
a(I1412381167
I2
I1
tp3048
a(I1412382097
I1
I1
tp3049
a(I1412383691
I2
I1
tp3050
a(I1412389296
I1
I1
tp3051
a(I1412392351
I1
I1
tp3052
a(I1412395794
I1
I1
tp3053
a(I1412397700
I1
I1
tp3054
a(I1412402692
I2
I1
tp3055
a(I1412404478
I6
I2
tp3056
a(I1412405393
I4
I1
tp3057
a(I1412406934
I2
I1
tp3058
a(I1412408719
I3
I1
tp3059
a(I1412410298
I2
I1
tp3060
a(I1412411282
I3
I1
tp3061
a(I1412412315
I5
I1
tp3062
a(I1412413468
I11
I2
tp3063
a(I1412414399
I10
I2
tp3064
a(I1412415347
I11
I1
tp3065
a(I1412416274
I18
I3
tp3066
a(I1412417195
I18
I4
tp3067
a(I1412418113
I18
I3
tp3068
a(I1412419124
I13
I2
tp3069
a(I1412420140
I14
I2
tp3070
a(I1412421101
I10
I2
tp3071
a(I1412422104
I15
I2
tp3072
a(I1412423021
I14
I2
tp3073
a(I1412424169
I21
I2
tp3074
a(I1412425180
I21
I2
tp3075
a(I1412426212
I16
I4
tp3076
a(I1412427242
I25
I3
tp3077
a(I1412428233
I17
I1
tp3078
a(I1412429163
I25
I3
tp3079
a(I1412430071
I10
I2
tp3080
a(I1412431056
I17
I3
tp3081
a(I1412432114
I3
I1
tp3082
a(I1412433094
I6
I1
tp3083
a(I1412434028
I15
I3
tp3084
a(I1412434962
I5
I2
tp3085
a(I1412436092
I10
I2
tp3086
a(I1412436995
I12
I2
tp3087
a(I1412437958
I15
I3
tp3088
a(I1412438880
I8
I2
tp3089
a(I1412439798
I15
I3
tp3090
a(I1412440723
I12
I2
tp3091
a(I1412441655
I18
I2
tp3092
a(I1412442789
I2
I2
tp3093
a(I1412443932
I7
I2
tp3094
a(I1412445208
I15
I2
tp3095
a(I1412446111
I19
I3
tp3096
a(I1412447112
I17
I2
tp3097
a(I1412448193
I14
I2
tp3098
a(I1412449095
I15
I2
tp3099
a(I1412450101
I10
I1
tp3100
a(I1412451150
I15
I2
tp3101
a(I1412452160
I7
I2
tp3102
a(I1412453075
I9
I1
tp3103
a(I1412454075
I5
I1
tp3104
a(I1412454988
I11
I3
tp3105
a(I1412455967
I3
I2
tp3106
a(I1412457905
I2
I1
tp3107
a(I1412458920
I15
I2
tp3108
a(I1412459823
I16
I2
tp3109
a(I1412460780
I6
I1
tp3110
a(I1412461689
I3
I1
tp3111
a(I1412462599
I1
I1
tp3112
a(I1412465203
I2
I1
tp3113
a(I1412472808
I5
I1
tp3114
a(I1412479236
I2
I1
tp3115
a(I1412482531
I1
I1
tp3116
a(I1412487126
I1
I1
tp3117
a(I1412488783
I9
I2
tp3118
a(I1412490418
I3
I1
tp3119
a(I1412491972
I4
I1
tp3120
a(I1412492993
I5
I1
tp3121
a(I1412493962
I2
I1
tp3122
a(I1412494963
I3
I1
tp3123
a(I1412496146
I7
I2
tp3124
a(I1412497770
I11
I1
tp3125
a(I1412498849
I6
I1
tp3126
a(I1412499924
I5
I1
tp3127
a(I1412503263
I7
I1
tp3128
a(I1412504178
I7
I1
tp3129
a(I1412505089
I10
I2
tp3130
a(I1412506060
I24
I2
tp3131
a(I1412507060
I16
I3
tp3132
a(I1412507991
I13
I2
tp3133
a(I1412508926
I12
I2
tp3134
a(I1412509922
I15
I2
tp3135
a(I1412510846
I17
I2
tp3136
a(I1412511796
I8
I1
tp3137
a(I1412512763
I7
I1
tp3138
a(I1412513700
I17
I3
tp3139
a(I1412514728
I10
I2
tp3140
a(I1412515678
I2
I1
tp3141
a(I1412516757
I8
I1
tp3142
a(I1412517683
I9
I2
tp3143
a(I1412518799
I12
I2
tp3144
a(I1412519768
I16
I3
tp3145
a(I1412523164
I19
I2
tp3146
a(I1412524134
I10
I1
tp3147
a(I1412525099
I14
I2
tp3148
a(I1412526111
I12
I2
tp3149
a(I1412527105
I12
I2
tp3150
a(I1412528038
I15
I2
tp3151
a(I1412529052
I17
I2
tp3152
a(I1412529969
I16
I2
tp3153
a(I1412530879
I8
I1
tp3154
a(I1412531844
I10
I2
tp3155
a(I1412532776
I10
I2
tp3156
a(I1412534029
I1
I1
tp3157
a(I1412535598
I24
I2
tp3158
a(I1412536523
I18
I2
tp3159
a(I1412537449
I11
I2
tp3160
a(I1412538400
I13
I2
tp3161
a(I1412539879
I7
I2
tp3162
a(I1412542645
I16
I2
tp3163
a(I1412543578
I12
I2
tp3164
a(I1412544502
I5
I1
tp3165
a(I1412546226
I6
I1
tp3166
a(I1412547243
I2
I1
tp3167
a(I1412548206
I14
I2
tp3168
a(I1412549213
I12
I2
tp3169
a(I1412550171
I5
I2
tp3170
a(I1412551094
I22
I2
tp3171
a(I1412552032
I14
I2
tp3172
a(I1412553046
I7
I1
tp3173
a(I1412554359
I1
I1
tp3174
a(I1412555522
I1
I1
tp3175
a(I1412557209
I3
I1
tp3176
a(I1412558218
I1
I1
tp3177
a(I1412559358
I1
I1
tp3178
a(I1412562426
I1
I1
tp3179
a(I1412563871
I7
I1
tp3180
a(I1412565626
I1
I1
tp3181
a(I1412567467
I1
I1
tp3182
a(I1412569248
I2
I1
tp3183
a(I1412571554
I1
I1
tp3184
a(I1412574272
I1
I1
tp3185
a(I1412576686
I6
I1
tp3186
a(I1412578292
I3
I1
tp3187
a(I1412579342
I4
I1
tp3188
a(I1412580983
I6
I1
tp3189
a(I1412582008
I4
I1
tp3190
a(I1412583119
I3
I1
tp3191
a(I1412584567
I3
I1
tp3192
a(I1412585587
I9
I1
tp3193
a(I1412586577
I9
I1
tp3194
a(I1412587522
I20
I3
tp3195
a(I1412588443
I21
I3
tp3196
a(I1412589357
I16
I1
tp3197
a(I1412590378
I18
I3
tp3198
a(I1412591301
I8
I1
tp3199
a(I1412592255
I8
I1
tp3200
a(I1412593265
I15
I3
tp3201
a(I1412594216
I12
I1
tp3202
a(I1412595145
I19
I3
tp3203
a(I1412596064
I23
I2
tp3204
a(I1412596984
I14
I1
tp3205
a(I1412597890
I13
I2
tp3206
a(I1412598876
I13
I2
tp3207
a(I1412599790
I11
I2
tp3208
a(I1412600692
I21
I3
tp3209
a(I1412601689
I15
I2
tp3210
a(I1412610781
I23
I3
tp3211
a(I1412611723
I15
I2
tp3212
a(I1412612730
I22
I3
tp3213
a(I1412613658
I13
I2
tp3214
a(I1412614718
I6
I2
tp3215
a(I1412615744
I9
I2
tp3216
a(I1412616668
I7
I2
tp3217
a(I1412617727
I7
I1
tp3218
a(I1412618633
I6
I1
tp3219
a(I1412619562
I26
I4
tp3220
a(I1412620549
I15
I3
tp3221
a(I1412621562
I1
I1
tp3222
a(I1412623660
I7
I2
tp3223
a(I1412624573
I8
I2
tp3224
a(I1412625527
I14
I2
tp3225
a(I1412626450
I4
I2
tp3226
a(I1412627525
I8
I2
tp3227
a(I1412630265
I6
I1
tp3228
a(I1412631288
I17
I3
tp3229
a(I1412632300
I5
I2
tp3230
a(I1412633425
I1
I1
tp3231
a(I1412634489
I1
I1
tp3232
a(I1412636374
I2
I1
tp3233
a(I1412637500
I20
I2
tp3234
a(I1412638481
I12
I2
tp3235
a(I1412639391
I6
I1
tp3236
a(I1412640307
I1
I1
tp3237
a(I1412642157
I1
I1
tp3238
a(I1412643416
I7
I1
tp3239
a(I1412644482
I6
I1
tp3240
a(I1412646038
I1
I1
tp3241
a(I1412647178
I1
I1
tp3242
a(I1412649076
I1
I1
tp3243
a(I1412654599
I2
I1
tp3244
a(I1412655522
I2
I1
tp3245
a(I1412658704
I1
I1
tp3246
a(I1412660362
I1
I1
tp3247
a(I1412662640
I1
I1
tp3248
a(I1412664579
I5
I1
tp3249
a(I1412665506
I4
I1
tp3250
a(I1412666622
I4
I1
tp3251
a(I1412669425
I1
I1
tp3252
a(I1412670432
I6
I1
tp3253
a(I1412671386
I8
I1
tp3254
a(I1412672385
I10
I1
tp3255
a(I1412673306
I22
I3
tp3256
a(I1412674302
I13
I2
tp3257
a(I1412675204
I11
I1
tp3258
a(I1412676220
I17
I2
tp3259
a(I1412677187
I16
I3
tp3260
a(I1412678173
I21
I2
tp3261
a(I1412679329
I13
I2
tp3262
a(I1412680342
I7
I1
tp3263
a(I1412681247
I13
I2
tp3264
a(I1412682222
I13
I2
tp3265
a(I1412683125
I13
I2
tp3266
a(I1412684061
I22
I3
tp3267
a(I1412684966
I27
I3
tp3268
a(I1412685980
I19
I2
tp3269
a(I1412686993
I13
I3
tp3270
a(I1412687915
I12
I2
tp3271
a(I1412688877
I15
I2
tp3272
a(I1412689857
I10
I1
tp3273
a(I1412690774
I14
I2
tp3274
a(I1412691687
I22
I2
tp3275
a(I1412692620
I8
I2
tp3276
a(I1412693670
I6
I1
tp3277
a(I1412695115
I7
I1
tp3278
a(I1412698640
I8
I2
tp3279
a(I1412699570
I4
I2
tp3280
a(I1412701105
I11
I2
tp3281
a(I1412702010
I17
I2
tp3282
a(I1412702983
I11
I1
tp3283
a(I1412703965
I13
I3
tp3284
a(I1412705047
I7
I2
tp3285
a(I1412706051
I1
I1
tp3286
a(I1412707205
I3
I2
tp3287
a(I1412708325
I4
I2
tp3288
a(I1412709355
I19
I2
tp3289
a(I1412710337
I4
I1
tp3290
a(I1412711346
I13
I2
tp3291
a(I1412712295
I8
I1
tp3292
a(I1412713262
I11
I2
tp3293
a(I1412714267
I6
I2
tp3294
a(I1412715266
I10
I2
tp3295
a(I1412716170
I8
I2
tp3296
a(I1412717670
I5
I2
tp3297
a(I1412718973
I15
I3
tp3298
a(I1412722105
I8
I1
tp3299
a(I1412723012
I24
I2
tp3300
a(I1412723926
I11
I1
tp3301
a(I1412724845
I4
I1
tp3302
a(I1412726082
I4
I1
tp3303
a(I1412728344
I2
I1
tp3304
a(I1412729951
I4
I1
tp3305
a(I1412731177
I6
I2
tp3306
a(I1412732438
I2
I1
tp3307
a(I1412739592
I1
I1
tp3308
a(I1412744956
I1
I1
tp3309
a(I1412750618
I1
I1
tp3310
a(I1412752356
I8
I1
tp3311
a(I1412755123
I4
I1
tp3312
a(I1412756415
I1
I1
tp3313
a(I1412759401
I9
I1
tp3314
a(I1412760348
I9
I1
tp3315
a(I1412761318
I21
I3
tp3316
a(I1412762251
I21
I3
tp3317
a(I1412763169
I17
I3
tp3318
a(I1412764199
I13
I2
tp3319
a(I1412765373
I13
I2
tp3320
a(I1412766284
I17
I2
tp3321
a(I1412767296
I12
I1
tp3322
a(I1412768209
I18
I2
tp3323
a(I1412769162
I19
I2
tp3324
a(I1412770129
I12
I2
tp3325
a(I1412771297
I10
I2
tp3326
a(I1412773165
I12
I2
tp3327
a(I1412774074
I12
I2
tp3328
a(I1412774976
I15
I1
tp3329
a(I1412776005
I10
I2
tp3330
a(I1412777035
I10
I2
tp3331
a(I1412779938
I14
I2
tp3332
a(I1412781022
I9
I2
tp3333
a(I1412781971
I11
I2
tp3334
a(I1412782980
I10
I2
tp3335
a(I1412784430
I9
I1
tp3336
a(I1412785334
I15
I2
tp3337
a(I1412786332
I10
I2
tp3338
a(I1412787483
I8
I2
tp3339
a(I1412788804
I15
I2
tp3340
a(I1412789869
I10
I2
tp3341
a(I1412790900
I15
I2
tp3342
a(I1412791898
I11
I3
tp3343
a(I1412792810
I3
I1
tp3344
a(I1412793713
I8
I2
tp3345
a(I1412794641
I6
I2
tp3346
a(I1412796116
I8
I1
tp3347
a(I1412797134
I9
I2
tp3348
a(I1412798301
I3
I2
tp3349
a(I1412799229
I2
I1
tp3350
a(I1412800391
I12
I3
tp3351
a(I1412801751
I4
I1
tp3352
a(I1412805020
I7
I1
tp3353
a(I1412806236
I3
I1
tp3354
a(I1412807163
I2
I1
tp3355
a(I1412809032
I3
I2
tp3356
a(I1412811514
I3
I2
tp3357
a(I1412814264
I26
I2
tp3358
a(I1412815257
I9
I1
tp3359
a(I1412816257
I5
I1
tp3360
a(I1412818188
I1
I1
tp3361
a(I1412824987
I2
I1
tp3362
a(I1412827227
I1
I1
tp3363
a(I1412830477
I2
I1
tp3364
a(I1412832019
I1
I1
tp3365
a(I1412835159
I10
I1
tp3366
a(I1412836721
I4
I1
tp3367
a(I1412837674
I3
I1
tp3368
a(I1412838837
I4
I1
tp3369
a(I1412839770
I5
I1
tp3370
a(I1412842678
I3
I1
tp3371
a(I1412843673
I7
I2
tp3372
a(I1412844753
I8
I1
tp3373
a(I1412845744
I10
I1
tp3374
a(I1412846666
I18
I3
tp3375
a(I1412847602
I14
I3
tp3376
a(I1412848516
I14
I2
tp3377
a(I1412849489
I16
I3
tp3378
a(I1412868765
I23
I3
tp3379
a(I1412869758
I10
I3
tp3380
a(I1412870680
I13
I3
tp3381
a(I1412871598
I10
I3
tp3382
a(I1412872569
I4
I1
tp3383
a(I1412873532
I2
I1
tp3384
a(I1412874617
I6
I1
tp3385
a(I1412875664
I2
I2
tp3386
a(I1412877219
I10
I2
tp3387
a(I1412878301
I12
I3
tp3388
a(I1412879202
I14
I3
tp3389
a(I1412880230
I6
I1
tp3390
a(I1412881138
I5
I1
tp3391
a(I1412882108
I5
I1
tp3392
a(I1412883069
I16
I2
tp3393
a(I1412883999
I19
I2
tp3394
a(I1412884964
I15
I2
tp3395
a(I1412885938
I14
I2
tp3396
a(I1412886911
I15
I2
tp3397
a(I1412887885
I12
I2
tp3398
a(I1412888836
I14
I2
tp3399
a(I1412889757
I17
I2
tp3400
a(I1412890716
I22
I3
tp3401
a(I1412891620
I6
I2
tp3402
a(I1412893610
I3
I1
tp3403
a(I1412894705
I7
I1
tp3404
a(I1412895716
I20
I3
tp3405
a(I1412896681
I11
I2
tp3406
a(I1412897614
I7
I1
tp3407
a(I1412899283
I2
I1
tp3408
a(I1412901559
I2
I1
tp3409
a(I1412902607
I2
I1
tp3410
a(I1412904576
I1
I1
tp3411
a(I1412908848
I5
I1
tp3412
a(I1412912306
I1
I1
tp3413
a(I1412922117
I1
I1
tp3414
a(I1412924255
I9
I2
tp3415
a(I1412925227
I4
I1
tp3416
a(I1412926233
I3
I1
tp3417
a(I1412927912
I2
I1
tp3418
a(I1412929021
I4
I1
tp3419
a(I1412930347
I8
I1
tp3420
a(I1412931434
I6
I1
tp3421
a(I1412932370
I8
I1
tp3422
a(I1412933316
I16
I4
tp3423
a(I1412934227
I15
I2
tp3424
a(I1412935144
I22
I3
tp3425
a(I1412936113
I14
I2
tp3426
a(I1412937106
I11
I2
tp3427
a(I1412938109
I11
I2
tp3428
a(I1412939085
I20
I3
tp3429
a(I1412940002
I11
I1
tp3430
a(I1412940916
I8
I2
tp3431
a(I1412941885
I18
I3
tp3432
a(I1412942876
I21
I2
tp3433
a(I1412943787
I22
I3
tp3434
a(I1412944705
I16
I2
tp3435
a(I1412945677
I10
I1
tp3436
a(I1412946645
I10
I2
tp3437
a(I1412947579
I11
I1
tp3438
a(I1412948483
I13
I1
tp3439
a(I1412949502
I16
I3
tp3440
a(I1412950461
I10
I3
tp3441
a(I1412951495
I9
I3
tp3442
a(I1412952402
I13
I3
tp3443
a(I1412953422
I18
I2
tp3444
a(I1412954377
I18
I3
tp3445
a(I1412955279
I13
I2
tp3446
a(I1412956225
I13
I2
tp3447
a(I1412957154
I10
I2
tp3448
a(I1412958077
I10
I2
tp3449
a(I1412958985
I10
I1
tp3450
a(I1412960195
I13
I2
tp3451
a(I1412961170
I17
I4
tp3452
a(I1412962117
I18
I2
tp3453
a(I1412963038
I18
I3
tp3454
a(I1412963959
I10
I1
tp3455
a(I1412964955
I18
I2
tp3456
a(I1412965927
I11
I1
tp3457
a(I1412966844
I12
I2
tp3458
a(I1412967837
I15
I1
tp3459
a(I1412968738
I21
I3
tp3460
a(I1412969670
I9
I2
tp3461
a(I1412971062
I7
I2
tp3462
a(I1412972084
I15
I2
tp3463
a(I1412973011
I2
I1
tp3464
a(I1412974284
I13
I2
tp3465
a(I1412975484
I7
I2
tp3466
a(I1412976698
I3
I2
tp3467
a(I1412977726
I15
I2
tp3468
a(I1412979201
I23
I3
tp3469
a(I1412984443
I16
I2
tp3470
a(I1412985616
I13
I2
tp3471
a(I1412986633
I9
I1
tp3472
a(I1412988638
I1
I1
tp3473
a(I1412992558
I2
I1
tp3474
a(I1412996349
I2
I1
tp3475
a(I1413001328
I1
I1
tp3476
a(I1413003815
I2
I1
tp3477
a(I1413008169
I1
I1
tp3478
a(I1413010058
I9
I2
tp3479
a(I1413010961
I2
I1
tp3480
a(I1413012191
I1
I1
tp3481
a(I1413013577
I1
I1
tp3482
a(I1413015851
I4
I1
tp3483
a(I1413016817
I1
I1
tp3484
a(I1413018239
I12
I2
tp3485
a(I1413019189
I10
I1
tp3486
a(I1413020169
I25
I3
tp3487
a(I1413021183
I15
I2
tp3488
a(I1413022148
I11
I1
tp3489
a(I1413023074
I21
I2
tp3490
a(I1413024027
I23
I3
tp3491
a(I1413024992
I13
I4
tp3492
a(I1413026039
I11
I2
tp3493
a(I1413026968
I14
I2
tp3494
a(I1413027870
I12
I2
tp3495
a(I1413028856
I16
I2
tp3496
a(I1413029778
I13
I1
tp3497
a(I1413030831
I11
I2
tp3498
a(I1413031732
I13
I2
tp3499
a(I1413033084
I11
I2
tp3500
a(I1413034067
I9
I2
tp3501
a(I1413034989
I8
I1
tp3502
a(I1413035977
I8
I1
tp3503
a(I1413036949
I10
I2
tp3504
a(I1413037975
I9
I2
tp3505
a(I1413038884
I13
I2
tp3506
a(I1413040429
I2
I1
tp3507
a(I1413042439
I4
I1
tp3508
a(I1413043846
I6
I2
tp3509
a(I1413044970
I11
I2
tp3510
a(I1413046077
I8
I2
tp3511
a(I1413047038
I3
I1
tp3512
a(I1413050450
I2
I2
tp3513
a(I1413052086
I16
I2
tp3514
a(I1413052988
I13
I1
tp3515
a(I1413053990
I7
I1
tp3516
a(I1413054902
I16
I2
tp3517
a(I1413055866
I5
I2
tp3518
a(I1413056956
I8
I2
tp3519
a(I1413057971
I15
I3
tp3520
a(I1413058910
I8
I2
tp3521
a(I1413060038
I6
I2
tp3522
a(I1413061035
I13
I2
tp3523
a(I1413061962
I12
I2
tp3524
a(I1413062908
I4
I2
tp3525
a(I1413064007
I2
I2
tp3526
a(I1413064919
I1
I1
tp3527
a(I1413066610
I1
I1
tp3528
a(I1413069074
I24
I3
tp3529
a(I1413070427
I9
I2
tp3530
a(I1413071441
I3
I1
tp3531
a(I1413072689
I2
I1
tp3532
a(I1413074971
I1
I1
tp3533
a(I1413076444
I1
I1
tp3534
a(I1413084194
I1
I1
tp3535
a(I1413088350
I1
I1
tp3536
a(I1413092356
I6
I1
tp3537
a(I1413096236
I4
I1
tp3538
a(I1413097267
I9
I1
tp3539
a(I1413098214
I3
I1
tp3540
a(I1413099428
I1
I1
tp3541
a(I1413102182
I8
I1
tp3542
a(I1413103171
I17
I3
tp3543
a(I1413104181
I6
I1
tp3544
a(I1413105138
I4
I1
tp3545
a(I1413106240
I6
I1
tp3546
a(I1413107320
I7
I1
tp3547
a(I1413108291
I14
I2
tp3548
a(I1413109285
I14
I3
tp3549
a(I1413110242
I14
I3
tp3550
a(I1413111243
I7
I2
tp3551
a(I1413112268
I16
I1
tp3552
a(I1413113248
I22
I2
tp3553
a(I1413114261
I13
I4
tp3554
a(I1413115260
I15
I2
tp3555
a(I1413116494
I8
I2
tp3556
a(I1413117441
I10
I1
tp3557
a(I1413118372
I8
I2
tp3558
a(I1413119313
I10
I1
tp3559
a(I1413120300
I9
I2
tp3560
a(I1413121243
I8
I2
tp3561
a(I1413122243
I22
I3
tp3562
a(I1413123227
I17
I2
tp3563
a(I1413124160
I15
I1
tp3564
a(I1413125144
I16
I2
tp3565
a(I1413126068
I15
I1
tp3566
a(I1413127007
I12
I2
tp3567
a(I1413127936
I14
I2
tp3568
a(I1413128852
I17
I2
tp3569
a(I1413129795
I14
I2
tp3570
a(I1413130783
I14
I1
tp3571
a(I1413131763
I19
I3
tp3572
a(I1413132678
I17
I3
tp3573
a(I1413133663
I13
I1
tp3574
a(I1413134585
I16
I1
tp3575
a(I1413135572
I21
I3
tp3576
a(I1413136557
I8
I2
tp3577
a(I1413137714
I4
I2
tp3578
a(I1413139595
I1
I1
tp3579
a(I1413141580
I19
I2
tp3580
a(I1413142526
I19
I3
tp3581
a(I1413143449
I13
I2
tp3582
a(I1413144531
I6
I2
tp3583
a(I1413145439
I7
I2
tp3584
a(I1413146614
I7
I2
tp3585
a(I1413149362
I12
I2
tp3586
a(I1413150345
I4
I1
tp3587
a(I1413152445
I3
I2
tp3588
a(I1413153449
I1
I1
tp3589
a(I1413154538
I1
I1
tp3590
a(I1413156794
I21
I2
tp3591
a(I1413157760
I11
I1
tp3592
a(I1413158699
I6
I1
tp3593
a(I1413159679
I6
I1
tp3594
a(I1413161077
I1
I1
tp3595
a(I1413165779
I2
I1
tp3596
a(I1413170523
I1
I1
tp3597
a(I1413172478
I6
I1
tp3598
a(I1413179108
I1
I1
tp3599
a(I1413181446
I2
I1
tp3600
a(I1413182365
I9
I1
tp3601
a(I1413183514
I2
I1
tp3602
a(I1413184617
I3
I1
tp3603
a(I1413185597
I1
I1
tp3604
a(I1413187327
I6
I1
tp3605
a(I1413188860
I8
I1
tp3606
a(I1413189875
I8
I1
tp3607
a(I1413190838
I19
I2
tp3608
a(I1413191819
I22
I2
tp3609
a(I1413192782
I9
I3
tp3610
asS'name'
p3611
g9
sS'fc_rule_refs'
p3612
(lp3613
sbssS'entity_list_type'
p3614
g10
sg3611
S'sensor_data'
p3615
sb.